Archive member included because of file (symbol)

/home/boricj/Documents/Projects/minix/src/releasetools/rpi-tools/arm-bcm2708/arm-bcm2708-linux-gnueabi/bin/../lib/gcc/arm-bcm2708-linux-gnueabi/4.7.1/libgcc.a(_udivsi3.o)
                              cmd/built-in.o (__aeabi_uidiv)
/home/boricj/Documents/Projects/minix/src/releasetools/rpi-tools/arm-bcm2708/arm-bcm2708-linux-gnueabi/bin/../lib/gcc/arm-bcm2708-linux-gnueabi/4.7.1/libgcc.a(_divsi3.o)
                              cmd/built-in.o (__aeabi_idiv)
/home/boricj/Documents/Projects/minix/src/releasetools/rpi-tools/arm-bcm2708/arm-bcm2708-linux-gnueabi/bin/../lib/gcc/arm-bcm2708-linux-gnueabi/4.7.1/libgcc.a(_lshrdi3.o)
                              fs/built-in.o (__aeabi_llsr)
/home/boricj/Documents/Projects/minix/src/releasetools/rpi-tools/arm-bcm2708/arm-bcm2708-linux-gnueabi/bin/../lib/gcc/arm-bcm2708-linux-gnueabi/4.7.1/libgcc.a(_ashldi3.o)
                              drivers/mmc/built-in.o (__aeabi_llsl)
/home/boricj/Documents/Projects/minix/src/releasetools/rpi-tools/arm-bcm2708/arm-bcm2708-linux-gnueabi/bin/../lib/gcc/arm-bcm2708-linux-gnueabi/4.7.1/libgcc.a(_dvmd_lnx.o)
                              /home/boricj/Documents/Projects/minix/src/releasetools/rpi-tools/arm-bcm2708/arm-bcm2708-linux-gnueabi/bin/../lib/gcc/arm-bcm2708-linux-gnueabi/4.7.1/libgcc.a(_udivsi3.o) (__aeabi_idiv0)

Discarded input sections

 .data          0x00000000        0x0 arch/arm/cpu/arm1176/start.o
 .bss           0x00000000        0x0 arch/arm/cpu/arm1176/start.o
 .text          0x00000000        0x0 arch/arm/cpu/arm1176/built-in.o
 .text.invalidate_dcache_all
                0x00000000        0xc arch/arm/cpu/arm1176/built-in.o
 .data          0x00000000        0x0 arch/arm/cpu/arm1176/built-in.o
 .bss           0x00000000        0x0 arch/arm/cpu/arm1176/built-in.o
 .text.enable_caches
                0x00000000        0xc arch/arm/lib/built-in.o
 .text.invalidate_dcache_range
                0x00000000        0x4 arch/arm/lib/built-in.o
 .text.flush_dcache_range
                0x00000000        0x4 arch/arm/lib/built-in.o
 .text.flush_dcache_all
                0x00000000        0xc arch/arm/lib/built-in.o
 .text.icache_status
                0x00000000       0x10 arch/arm/lib/built-in.o
 .data          0x00000000        0x0 arch/arm/lib/built-in.o
 .__secure_end  0x00000000        0x0 arch/arm/lib/built-in.o
 .__secure_start
                0x00000000        0x0 arch/arm/lib/built-in.o
 .bss           0x00000000        0x0 arch/arm/lib/built-in.o
 .data          0x00000000        0x0 arch/arm/mach-bcm283x/built-in.o
 .bss           0x00000000        0x0 arch/arm/mach-bcm283x/built-in.o
 .text          0x00000000        0x0 board/raspberrypi/rpi/built-in.o
 .data          0x00000000        0x0 board/raspberrypi/rpi/built-in.o
 .bss           0x00000000        0x0 board/raspberrypi/rpi/built-in.o
 .text          0x00000000        0x0 cmd/built-in.o
 .text.bootz_setup
                0x00000000       0x18 cmd/built-in.o
 .text.name_to_gpio
                0x00000000        0xc cmd/built-in.o
 .data          0x00000000        0x0 cmd/built-in.o
 .bss           0x00000000        0x0 cmd/built-in.o
 .text          0x00000000        0x0 common/built-in.o
 .text.hash_finish_crc32
                0x00000000       0x30 common/built-in.o
 .text.hash_update_crc32
                0x00000000       0x24 common/built-in.o
 .text.hash_init_crc32
                0x00000000       0x24 common/built-in.o
 .text.hash_lookup_algo
                0x00000000       0x28 common/built-in.o
 .text.hash_progressive_lookup_algo
                0x00000000       0x3c common/built-in.o
 .text.hash_parse_string
                0x00000000       0x64 common/built-in.o
 .text.hash_block
                0x00000000       0x70 common/built-in.o
 .text.unset_local_var
                0x00000000       0xa4 common/built-in.o
 .text.arch_cpu_init
                0x00000000        0x8 common/built-in.o
 .text.red_led_off
                0x00000000        0x4 common/built-in.o
 .text.green_led_on
                0x00000000        0x4 common/built-in.o
 .text.green_led_off
                0x00000000        0x4 common/built-in.o
 .text.yellow_led_on
                0x00000000        0x4 common/built-in.o
 .text.yellow_led_off
                0x00000000        0x4 common/built-in.o
 .text.blue_led_on
                0x00000000        0x4 common/built-in.o
 .text.blue_led_off
                0x00000000        0x4 common/built-in.o
 .text.arch_reserve_stacks
                0x00000000        0x8 common/built-in.o
 .text.board_flash_wp_on
                0x00000000        0x8 common/built-in.o
 .text.fixup_cpu
                0x00000000        0x8 common/built-in.o
 .text.env_flags_parse_varaccess_from_binflags
                0x00000000       0x4c common/built-in.o
 .text.of_bus_default_map
                0x00000000      0x128 common/built-in.o
 .text.fdt_read_prop
                0x00000000       0xc4 common/built-in.o
 .text.of_bus_default_translate
                0x00000000       0xdc common/built-in.o
 .text.fdt_getprop_u32_default_node
                0x00000000       0x58 common/built-in.o
 .text.fdt_getprop_u32_default
                0x00000000       0x3c common/built-in.o
 .text.do_fixup_by_path_u32
                0x00000000       0x40 common/built-in.o
 .text.do_fixup_by_prop
                0x00000000       0x94 common/built-in.o
 .text.do_fixup_by_prop_u32
                0x00000000       0x50 common/built-in.o
 .text.do_fixup_by_compat
                0x00000000       0x84 common/built-in.o
 .text.do_fixup_by_compat_u32
                0x00000000       0x40 common/built-in.o
 .text.fdt_increase_size
                0x00000000       0x30 common/built-in.o
 .text.fdt_del_node_and_alias
                0x00000000       0x44 common/built-in.o
 .text.fdt_translate_address
                0x00000000      0x2d4 common/built-in.o
 .text.fdt_node_offset_by_compat_reg
                0x00000000       0x84 common/built-in.o
 .text.fdt_alloc_phandle
                0x00000000       0x58 common/built-in.o
 .text.fdt_set_phandle
                0x00000000       0x74 common/built-in.o
 .text.fdt_create_phandle
                0x00000000       0x64 common/built-in.o
 .text.fdt_set_node_status
                0x00000000      0x10c common/built-in.o
 .text.fdt_set_status_by_alias
                0x00000000       0x2c common/built-in.o
 .text.fdt_add_edid
                0x00000000       0xa8 common/built-in.o
 .text.fdt_verify_alias_address
                0x00000000       0xd0 common/built-in.o
 .text.fdt_get_base_address
                0x00000000       0x64 common/built-in.o
 .text.fdt_read_range
                0x00000000      0x148 common/built-in.o
 .text.fdt_fixup_display
                0x00000000       0xf0 common/built-in.o
 .text.legacy_miiphy_read
                0x00000000       0x30 common/built-in.o
 .text.legacy_miiphy_write
                0x00000000       0x24 common/built-in.o
 .text.mdio_alloc
                0x00000000       0x30 common/built-in.o
 .text.miiphy_register
                0x00000000      0x124 common/built-in.o
 .text.mdio_free
                0x00000000        0x4 common/built-in.o
 .text.mdio_register
                0x00000000       0x8c common/built-in.o
 .text.mdio_unregister
                0x00000000       0x3c common/built-in.o
 .text.mdio_list_devices
                0x00000000       0x9c common/built-in.o
 .text.mdio_get_current_dev
                0x00000000       0x10 common/built-in.o
 .text.mdio_phydev_for_ethname
                0x00000000       0x8c common/built-in.o
 .text.miiphy_reset
                0x00000000       0xac common/built-in.o
 .text.usb_detect_change
                0x00000000       0x84 common/built-in.o
 .text.usb_get_report
                0x00000000       0x68 common/built-in.o
 .text.usb_get_class_descriptor
                0x00000000       0x68 common/built-in.o
 .text.board_usb_cleanup
                0x00000000        0x8 common/built-in.o
 .text.usb_stor_reset
                0x00000000       0x14 common/built-in.o
 .text.iomux_printdevs
                0x00000000       0x58 common/built-in.o
 .text.splash_screen_prepare
                0x00000000        0x8 common/built-in.o
 .text.lcd_get_size
                0x00000000       0x34 common/built-in.o
 .text.lcd_setmem
                0x00000000       0x30 common/built-in.o
 .text.lcd_get_screen_rows
                0x00000000       0x10 common/built-in.o
 .text.lcd_get_screen_columns
                0x00000000       0x10 common/built-in.o
 .text.console_calc_rowcol
                0x00000000       0x14 common/built-in.o
 .text.lcd_printf
                0x00000000       0x44 common/built-in.o
 .text.lcd_dt_simplefb_enable_existing_node
                0x00000000       0x34 common/built-in.o
 .text.menu_default_choice
                0x00000000       0x1c common/built-in.o
 .text.overwrite_console
                0x00000000        0x8 common/built-in.o
 .text.ftstc    0x00000000       0x14 common/built-in.o
 .text.fputc    0x00000000        0xc common/built-in.o
 .text.fputs    0x00000000        0xc common/built-in.o
 .text.fprintf  0x00000000       0x50 common/built-in.o
 .text.confirm_yesno
                0x00000000       0xd0 common/built-in.o
 .text.disable_ctrlc
                0x00000000       0x18 common/built-in.o
 .text.cfree    0x00000000        0x4 common/built-in.o
 .text.pvalloc  0x00000000       0x18 common/built-in.o
 .text.valloc   0x00000000        0xc common/built-in.o
 .text.malloc_usable_size
                0x00000000       0x3c common/built-in.o
 .text.mallopt  0x00000000       0x68 common/built-in.o
 .text.memalign_simple
                0x00000000       0x48 common/built-in.o
 .text.genimg_get_short_name
                0x00000000       0x1c common/built-in.o
 .text.genimg_get_type_short_name
                0x00000000       0x10 common/built-in.o
 .text.genimg_get_comp_short_name
                0x00000000       0x10 common/built-in.o
 .text.genimg_get_os_short_name
                0x00000000       0x10 common/built-in.o
 .text.genimg_get_arch_short_name
                0x00000000       0x10 common/built-in.o
 .text.get_table_entry_id
                0x00000000       0x50 common/built-in.o
 .text.genimg_get_os_id
                0x00000000       0x18 common/built-in.o
 .text.genimg_get_arch_id
                0x00000000       0x18 common/built-in.o
 .text.genimg_get_type_id
                0x00000000       0x18 common/built-in.o
 .text.genimg_get_comp_id
                0x00000000       0x18 common/built-in.o
 .text.arch_fixup_fdt
                0x00000000        0x8 common/built-in.o
 .text.get_ram_size
                0x00000000      0x100 common/built-in.o
 .text.stdio_deregister
                0x00000000       0x28 common/built-in.o
 .text.stdio_init
                0x00000000       0x14 common/built-in.o
 .text.cli_simple_parse_line
                0x00000000       0x88 common/built-in.o
 .text.cli_simple_run_command
                0x00000000      0x15c common/built-in.o
 .text.cli_simple_loop
                0x00000000       0x80 common/built-in.o
 .text.cli_simple_run_command_list
                0x00000000       0x7c common/built-in.o
 .text.run_command_repeatable
                0x00000000       0x1c common/built-in.o
 .rodata.__FUNCTION__.8671
                0x00000000       0x17 common/built-in.o
 .rodata.__FUNCTION__.8980
                0x00000000       0x10 common/built-in.o
 .data          0x00000000        0x0 common/built-in.o
 .data.hash_algo
                0x00000000       0x1c common/built-in.o
 .data.of_busses
                0x00000000       0x14 common/built-in.o
 .data.mmap_threshold
                0x00000000        0x4 common/built-in.o
 .bss           0x00000000        0x0 common/built-in.o
 .bss.env_ptr   0x00000000        0x4 common/built-in.o
 .bss.n_mmaps_max
                0x00000000        0x4 common/built-in.o
 .bss.save_addr
                0x00000000        0x4 common/built-in.o
 .bss.save_size
                0x00000000        0x4 common/built-in.o
 .bss.lastcommand.6999
                0x00000000      0x401 common/built-in.o
 .text          0x00000000        0x0 disk/built-in.o
 .text.set_protective_mbr
                0x00000000       0xd0 disk/built-in.o
 .text.part_get_info_efi_by_name
                0x00000000       0x60 disk/built-in.o
 .text.write_gpt_table
                0x00000000      0x38c disk/built-in.o
 .text.gpt_fill_pte
                0x00000000      0x2b4 disk/built-in.o
 .text.gpt_fill_header
                0x00000000      0x1a0 disk/built-in.o
 .text.gpt_restore
                0x00000000      0x100 disk/built-in.o
 .text.gpt_verify_headers
                0x00000000       0x7c disk/built-in.o
 .text.gpt_verify_partitions
                0x00000000      0x278 disk/built-in.o
 .text.is_valid_gpt_buf
                0x00000000       0x6c disk/built-in.o
 .text.write_mbr_and_gpt_partitions
                0x00000000      0x400 disk/built-in.o
 .rodata        0x00000000       0x10 disk/built-in.o
 .rodata.__func__.7141
                0x00000000       0x1d disk/built-in.o
 .rodata.__func__.7121
                0x00000000       0x16 disk/built-in.o
 .rodata.__func__.7108
                0x00000000       0x13 disk/built-in.o
 .rodata.__func__.7090
                0x00000000        0xc disk/built-in.o
 .rodata.__func__.7040
                0x00000000       0x13 disk/built-in.o
 .data          0x00000000        0x0 disk/built-in.o
 .bss           0x00000000        0x0 disk/built-in.o
 .text          0x00000000        0x0 drivers/built-in.o
 .text._device_find_global_by_of_offset
                0x00000000       0x50 drivers/built-in.o
 .text.dev_get_parent_platdata
                0x00000000       0x30 drivers/built-in.o
 .text.dev_get_uclass_platdata
                0x00000000       0x30 drivers/built-in.o
 .text.dev_get_parent_priv
                0x00000000       0x30 drivers/built-in.o
 .text.device_get_child
                0x00000000       0x50 drivers/built-in.o
 .text.device_find_child_by_seq
                0x00000000       0x58 drivers/built-in.o
 .text.device_get_child_by_seq
                0x00000000       0x60 drivers/built-in.o
 .text.device_find_child_by_of_offset
                0x00000000       0x44 drivers/built-in.o
 .text.device_get_child_by_of_offset
                0x00000000       0x3c drivers/built-in.o
 .text.device_get_global_by_of_offset
                0x00000000       0x40 drivers/built-in.o
 .text.device_find_first_child
                0x00000000       0x1c drivers/built-in.o
 .text.device_find_next_child
                0x00000000       0x28 drivers/built-in.o
 .text.dev_get_parent
                0x00000000        0x8 drivers/built-in.o
 .text.dev_get_driver_data
                0x00000000        0x8 drivers/built-in.o
 .text.dev_get_driver_ops
                0x00000000       0x10 drivers/built-in.o
 .text.device_get_uclass_id
                0x00000000       0x10 drivers/built-in.o
 .text.dev_get_uclass_name
                0x00000000       0x14 drivers/built-in.o
 .text.dev_get_addr_index
                0x00000000        0x8 drivers/built-in.o
 .text.dev_get_addr_name
                0x00000000        0x8 drivers/built-in.o
 .text.dev_get_addr
                0x00000000        0x8 drivers/built-in.o
 .text.dev_get_addr_ptr
                0x00000000        0x8 drivers/built-in.o
 .text.device_has_children
                0x00000000       0x14 drivers/built-in.o
 .text.device_has_active_children
                0x00000000       0x44 drivers/built-in.o
 .text.device_is_last_sibling
                0x00000000       0x2c drivers/built-in.o
 .text.device_set_name
                0x00000000       0x24 drivers/built-in.o
 .text.device_bind_driver_to_node
                0x00000000       0x48 drivers/built-in.o
 .text.device_bind_driver
                0x00000000       0x14 drivers/built-in.o
 .text.dm_get_translation_offset
                0x00000000       0x14 drivers/built-in.o
 .text.dm_set_translation_offset
                0x00000000       0x18 drivers/built-in.o
 .text.dm_uninit
                0x00000000       0x1c drivers/built-in.o
 .text.uclass_destroy
                0x00000000       0x98 drivers/built-in.o
 .text.uclass_find_device_by_name
                0x00000000       0x8c drivers/built-in.o
 .text.uclass_find_device_by_of_offset
                0x00000000       0x68 drivers/built-in.o
 .text.uclass_get_device_by_name
                0x00000000       0x2c drivers/built-in.o
 .text.uclass_get_device_by_of_offset
                0x00000000       0x2c drivers/built-in.o
 .text.uclass_first_device_err
                0x00000000       0x28 drivers/built-in.o
 .text.dm_dbg   0x00000000       0x24 drivers/built-in.o
 .text.list_count_items
                0x00000000       0x24 drivers/built-in.o
 .text.device_unbind
                0x00000000      0x134 drivers/built-in.o
 .text._input_send_keycodes
                0x00000000      0x420 drivers/built-in.o
 .text.input_tstc
                0x00000000       0x48 drivers/built-in.o
 .text.input_getc
                0x00000000       0x60 drivers/built-in.o
 .text.input_send_keycodes
                0x00000000        0x8 drivers/built-in.o
 .text.input_add_keycode
                0x00000000       0x88 drivers/built-in.o
 .text.input_add_table
                0x00000000       0x44 drivers/built-in.o
 .text.input_set_delays
                0x00000000        0xc drivers/built-in.o
 .text.input_allow_repeats
                0x00000000        0x8 drivers/built-in.o
 .text.input_leds_changed
                0x00000000       0x14 drivers/built-in.o
 .text.input_add_tables
                0x00000000       0x68 drivers/built-in.o
 .text.input_init
                0x00000000       0x24 drivers/built-in.o
 .text.input_stdio_register
                0x00000000       0x54 drivers/built-in.o
 .rodata.__func__.8934
                0x00000000       0x18 drivers/built-in.o
 .rodata.__func__.8938
                0x00000000       0x18 drivers/built-in.o
 .rodata.__func__.8950
                0x00000000       0x14 drivers/built-in.o
 .rodata.kbd_to_ansi364
                0x00000000       0x20 drivers/built-in.o
 .rodata.kbd_plain_xlate
                0x00000000       0x64 drivers/built-in.o
 .rodata.kbd_plain_xlate_german
                0x00000000       0x84 drivers/built-in.o
 .rodata.CSWTCH.28
                0x00000000        0xd drivers/built-in.o
 .data          0x00000000        0x0 drivers/built-in.o
 .data.kbd_ctrl_xlate
                0x00000000       0x64 drivers/built-in.o
 .data.kbd_right_alt_xlate_german
                0x00000000       0x58 drivers/built-in.o
 .data.kbd_shift_xlate_german
                0x00000000       0x84 drivers/built-in.o
 .data.kbd_entry
                0x00000000       0x8c drivers/built-in.o
 .data.kbd_shift_xlate
                0x00000000       0x64 drivers/built-in.o
 .bss           0x00000000        0x0 drivers/built-in.o
 .text          0x00000000        0x0 drivers/gpio/built-in.o
 .text.dm_gpio_requestf
                0x00000000       0x44 drivers/gpio/built-in.o
 .text.gpio_requestf
                0x00000000       0x44 drivers/gpio/built-in.o
 .text.dm_gpio_set_dir_flags
                0x00000000       0x8c drivers/gpio/built-in.o
 .text._gpio_request_by_name_nodev
                0x00000000      0x120 drivers/gpio/built-in.o
 .text.dm_gpio_set_dir
                0x00000000        0x8 drivers/gpio/built-in.o
 .text.gpio_claim_vector
                0x00000000       0x90 drivers/gpio/built-in.o
 .text.gpio_get_values_as_int
                0x00000000       0x4c drivers/gpio/built-in.o
 .text.dm_gpio_get_values_as_int
                0x00000000       0x4c drivers/gpio/built-in.o
 .text.gpio_request_by_name_nodev
                0x00000000       0x30 drivers/gpio/built-in.o
 .text.gpio_request_by_name
                0x00000000       0x34 drivers/gpio/built-in.o
 .text.gpio_get_list_count
                0x00000000       0x38 drivers/gpio/built-in.o
 .text.dm_gpio_free
                0x00000000        0xc drivers/gpio/built-in.o
 .text.gpio_free_list
                0x00000000       0x3c drivers/gpio/built-in.o
 .text.gpio_free_list_nodev
                0x00000000       0x14 drivers/gpio/built-in.o
 .text.gpio_request_list_by_name_nodev
                0x00000000       0x98 drivers/gpio/built-in.o
 .text.gpio_request_list_by_name
                0x00000000       0x34 drivers/gpio/built-in.o
 .text.gpio_get_number
                0x00000000       0x20 drivers/gpio/built-in.o
 .data          0x00000000        0x0 drivers/gpio/built-in.o
 .bss           0x00000000        0x0 drivers/gpio/built-in.o
 .text          0x00000000        0x0 drivers/mmc/built-in.o
 .text.mmc_register
                0x00000000       0x20 drivers/mmc/built-in.o
 .text.mmc_destroy
                0x00000000        0x4 drivers/mmc/built-in.o
 .text.board_mmc_init
                0x00000000        0x8 drivers/mmc/built-in.o
 .text.mmc_set_preinit
                0x00000000        0x8 drivers/mmc/built-in.o
 .rodata.__func__.9023
                0x00000000        0xd drivers/mmc/built-in.o
 .data          0x00000000        0x0 drivers/mmc/built-in.o
 .bss           0x00000000        0x0 drivers/mmc/built-in.o
 .text          0x00000000        0x0 drivers/serial/built-in.o
 .data          0x00000000        0x0 drivers/serial/built-in.o
 .bss           0x00000000        0x0 drivers/serial/built-in.o
 .text          0x00000000        0x0 drivers/spi/built-in.o
 .text.spi_set_wordlen
                0x00000000       0x30 drivers/spi/built-in.o
 .text.spi_do_alloc_slave
                0x00000000       0x4c drivers/spi/built-in.o
 .rodata.str1.1
                0x00000000       0x19 drivers/spi/built-in.o
 .data          0x00000000        0x0 drivers/spi/built-in.o
 .bss           0x00000000        0x0 drivers/spi/built-in.o
 .comment       0x00000000       0x38 drivers/spi/built-in.o
 .note.GNU-stack
                0x00000000        0x0 drivers/spi/built-in.o
 .ARM.attributes
                0x00000000       0x2c drivers/spi/built-in.o
 .debug_aranges
                0x00000000       0x28 drivers/spi/built-in.o
 .debug_info    0x00000000      0x59a drivers/spi/built-in.o
 .debug_abbrev  0x00000000      0x1a7 drivers/spi/built-in.o
 .debug_line    0x00000000      0x102 drivers/spi/built-in.o
 .debug_frame   0x00000000       0x48 drivers/spi/built-in.o
 .debug_str     0x00000000      0x38b drivers/spi/built-in.o
 .debug_loc     0x00000000      0x14f drivers/spi/built-in.o
 .debug_ranges  0x00000000       0x18 drivers/spi/built-in.o
 .text          0x00000000        0x0 drivers/usb/eth/built-in.o
 .text.is_eth_dev_on_usb_host
                0x00000000       0x60 drivers/usb/eth/built-in.o
 .data          0x00000000        0x0 drivers/usb/eth/built-in.o
 .bss           0x00000000        0x0 drivers/usb/eth/built-in.o
 .text          0x00000000        0x0 drivers/usb/host/built-in.o
 .data          0x00000000        0x0 drivers/usb/host/built-in.o
 .bss           0x00000000        0x0 drivers/usb/host/built-in.o
 .text          0x00000000        0x0 fs/built-in.o
 .text.fs_uuid  0x00000000       0x28 fs/built-in.o
 .text.do_fs_uuid
                0x00000000       0x94 fs/built-in.o
 .text.fat_register_device
                0x00000000       0x8c fs/built-in.o
 .text.file_getfsname
                0x00000000       0x18 fs/built-in.o
 .text.file_cd  0x00000000      0x1f8 fs/built-in.o
 .text.file_detectfs
                0x00000000       0x40 fs/built-in.o
 .text.file_ls  0x00000000       0x90 fs/built-in.o
 .text.file_read
                0x00000000       0xa0 fs/built-in.o
 .rodata.filesystems
                0x00000000       0x18 fs/built-in.o
 .data          0x00000000        0x0 fs/built-in.o
 .data.file_cwd
                0x00000000      0x200 fs/built-in.o
 .data.current_filesystem
                0x00000000        0x4 fs/built-in.o
 .bss           0x00000000        0x0 fs/built-in.o
 .bss.ext4fs_symlinknest
                0x00000000        0x4 fs/built-in.o
 .bss.g_parent_inode
                0x00000000        0x4 fs/built-in.o
 .text          0x00000000        0x0 lib/built-in.o
 .text.inflateInit_
                0x00000000       0x14 lib/built-in.o
 .text.crc7     0x00000000       0x28 lib/built-in.o
 .text.crc8     0x00000000       0x50 lib/built-in.o
 .text.lmb_dump_all
                0x00000000        0x4 lib/built-in.o
 .text.lmb_is_reserved
                0x00000000       0x50 lib/built-in.o
 .text.arch_lmb_reserve
                0x00000000        0x4 lib/built-in.o
 .text.ldiv     0x00000000       0x50 lib/built-in.o
 .text.rc4_encode
                0x00000000       0xec lib/built-in.o
 .text.strmhz   0x00000000       0x70 lib/built-in.o
 .text.fdt_first_subnode
                0x00000000       0x34 lib/built-in.o
 .text.fdt_next_subnode
                0x00000000       0x4c lib/built-in.o
 .text.fdt_get_phandle
                0x00000000       0x84 lib/built-in.o
 .text.fdt_get_alias
                0x00000000       0x28 lib/built-in.o
 .text.fdt_get_path
                0x00000000      0x138 lib/built-in.o
 .text.fdt_node_offset_by_prop_value
                0x00000000       0x9c lib/built-in.o
 .text.fdt_node_offset_by_phandle
                0x00000000       0x78 lib/built-in.o
 .text.fdt_stringlist_contains
                0x00000000       0x80 lib/built-in.o
 .text.fdt_count_strings
                0x00000000       0x58 lib/built-in.o
 .text.fdt_find_string
                0x00000000       0x8c lib/built-in.o
 .text.fdt_get_string_index
                0x00000000       0x60 lib/built-in.o
 .text.fdt_get_string
                0x00000000       0x14 lib/built-in.o
 .text.fdt_node_check_compatible
                0x00000000       0x3c lib/built-in.o
 .text.fdt_node_offset_by_compatible
                0x00000000       0x7c lib/built-in.o
 .text.fdt_appendprop
                0x00000000       0xf0 lib/built-in.o
 .text.fdt_pack
                0x00000000       0xac lib/built-in.o
 .text.fdt_remove_unused_strings
                0x00000000       0xe8 lib/built-in.o
 .text._fdt_sw_check_header
                0x00000000       0x34 lib/built-in.o
 .text._fdt_grab_space
                0x00000000       0xbc lib/built-in.o
 .text.fdt_create
                0x00000000       0x78 lib/built-in.o
 .text.fdt_resize
                0x00000000      0x10c lib/built-in.o
 .text.fdt_add_reservemap_entry
                0x00000000      0x178 lib/built-in.o
 .text.fdt_finish_reservemap
                0x00000000       0x18 lib/built-in.o
 .text.fdt_begin_node
                0x00000000       0x68 lib/built-in.o
 .text.fdt_end_node
                0x00000000       0x38 lib/built-in.o
 .text.fdt_property_placeholder
                0x00000000      0x1ac lib/built-in.o
 .text.fdt_property
                0x00000000       0x38 lib/built-in.o
 .text.fdt_finish
                0x00000000      0x1e4 lib/built-in.o
 .text.fdt_setprop_inplace
                0x00000000       0x44 lib/built-in.o
 .text.fdt_nop_property
                0x00000000       0x3c lib/built-in.o
 .text.fdt_nop_node
                0x00000000       0x50 lib/built-in.o
 .text.fdt_find_regions
                0x00000000      0x400 lib/built-in.o
 .text.fdt_create_empty_tree
                0x00000000       0x74 lib/built-in.o
 .text.fdt_add_region
                0x00000000       0x9c lib/built-in.o
 .text.fdt_add_alias_regions
                0x00000000      0x1e8 lib/built-in.o
 .text.fdt_next_region
                0x00000000      0x5bc lib/built-in.o
 .text.fdt_first_region
                0x00000000       0x4c lib/built-in.o
 .text.print_freq
                0x00000000      0x1c0 lib/built-in.o
 .text.crc32_wd_buf
                0x00000000       0x50 lib/built-in.o
 .text.copy_from_user
                0x00000000       0x10 lib/built-in.o
 .text.kmalloc  0x00000000       0x38 lib/built-in.o
 .text.get_mem  0x00000000       0x1c lib/built-in.o
 .text.kmem_cache_alloc
                0x00000000       0x10 lib/built-in.o
 .text.membuff_purge
                0x00000000       0x10 lib/built-in.o
 .text.membuff_putraw
                0x00000000       0xb0 lib/built-in.o
 .text.membuff_putbyte
                0x00000000       0x2c lib/built-in.o
 .text.membuff_getraw
                0x00000000       0x90 lib/built-in.o
 .text.membuff_getbyte
                0x00000000       0x30 lib/built-in.o
 .text.membuff_peekbyte
                0x00000000       0x2c lib/built-in.o
 .text.membuff_get
                0x00000000       0x80 lib/built-in.o
 .text.membuff_put
                0x00000000       0x68 lib/built-in.o
 .text.membuff_isempty
                0x00000000       0x18 lib/built-in.o
 .text.membuff_avail
                0x00000000       0x54 lib/built-in.o
 .text.membuff_size
                0x00000000        0xc lib/built-in.o
 .text.membuff_makecontig
                0x00000000       0x80 lib/built-in.o
 .text.membuff_free
                0x00000000       0x2c lib/built-in.o
 .text.membuff_readline
                0x00000000       0xb4 lib/built-in.o
 .text.membuff_extend_by
                0x00000000       0xbc lib/built-in.o
 .text.membuff_init
                0x00000000       0x18 lib/built-in.o
 .text.membuff_new
                0x00000000       0x38 lib/built-in.o
 .text.membuff_uninit
                0x00000000       0x18 lib/built-in.o
 .text.membuff_dispose
                0x00000000       0x24 lib/built-in.o
 .text.strcasecmp
                0x00000000        0x8 lib/built-in.o
 .text.strspn   0x00000000       0x48 lib/built-in.o
 .text.strpbrk  0x00000000       0x3c lib/built-in.o
 .text.strtok   0x00000000       0x7c lib/built-in.o
 .text.strsep   0x00000000       0x34 lib/built-in.o
 .text.strswab  0x00000000       0x4c lib/built-in.o
 .text.bcopy    0x00000000       0x24 lib/built-in.o
 .text.memchr_inv
                0x00000000      0x124 lib/built-in.o
 .text.timer_read_counter
                0x00000000       0x10 lib/built-in.o
 .text.vsnprintf
                0x00000000        0x4 lib/built-in.o
 .text.scnprintf
                0x00000000       0x24 lib/built-in.o
 .text.__assert_fail
                0x00000000       0x14 lib/built-in.o
 .text.print_grouped_ull
                0x00000000       0x88 lib/built-in.o
 .text.str2off  0x00000000       0x40 lib/built-in.o
 .text.str2long
                0x00000000       0x40 lib/built-in.o
 .rodata.z_errmsg
                0x00000000       0x28 lib/built-in.o
 .rodata.crc7_syndrome_table
                0x00000000      0x100 lib/built-in.o
 .rodata.names.7048
                0x00000000        0x3 lib/built-in.o
 .data          0x00000000        0x0 lib/built-in.o
 .data.cur      0x00000000        0x4 lib/built-in.o
 .data.current  0x00000000        0x4 lib/built-in.o
 .bss           0x00000000        0x0 lib/built-in.o
 .bss.___strtok
                0x00000000        0x4 lib/built-in.o
 .text          0x00000000        0x0 net/built-in.o
 .text.add_ip_checksums
                0x00000000       0x48 net/built-in.o
 .text.eth_is_active
                0x00000000       0x1c net/built-in.o
 .text.net_get_udp_handler
                0x00000000       0x10 net/built-in.o
 .text.net_set_arp_handler
                0x00000000       0x20 net/built-in.o
 .text.random_port
                0x00000000       0x1c net/built-in.o
 .text.vlan_to_string
                0x00000000       0x54 net/built-in.o
 .text.getenv_vlan
                0x00000000       0x10 net/built-in.o
 .data          0x00000000        0x0 net/built-in.o
 .data.tftp_timeout_ms
                0x00000000        0x4 net/built-in.o
 .bss           0x00000000        0x0 net/built-in.o
 .text          0x00000000        0x0 test/dm/built-in.o
 .data          0x00000000        0x0 test/dm/built-in.o
 .bss           0x00000000        0x0 test/dm/built-in.o
 .text          0x00000000        0x0 arch/arm/lib/eabi_compat.o
 .data          0x00000000        0x0 arch/arm/lib/eabi_compat.o
 .bss           0x00000000        0x0 arch/arm/lib/eabi_compat.o
 .text.__aeabi_unwind_cpp_pr0
                0x00000000        0x4 arch/arm/lib/eabi_compat.o
 .text.__aeabi_unwind_cpp_pr1
                0x00000000        0x4 arch/arm/lib/eabi_compat.o
 .text.__aeabi_memcpy
                0x00000000        0x4 arch/arm/lib/eabi_compat.o
 .text.__aeabi_memset
                0x00000000       0x10 arch/arm/lib/eabi_compat.o
 .data          0x00000000        0x0 /home/boricj/Documents/Projects/minix/src/releasetools/rpi-tools/arm-bcm2708/arm-bcm2708-linux-gnueabi/bin/../lib/gcc/arm-bcm2708-linux-gnueabi/4.7.1/libgcc.a(_udivsi3.o)
 .bss           0x00000000        0x0 /home/boricj/Documents/Projects/minix/src/releasetools/rpi-tools/arm-bcm2708/arm-bcm2708-linux-gnueabi/bin/../lib/gcc/arm-bcm2708-linux-gnueabi/4.7.1/libgcc.a(_udivsi3.o)
 .data          0x00000000        0x0 /home/boricj/Documents/Projects/minix/src/releasetools/rpi-tools/arm-bcm2708/arm-bcm2708-linux-gnueabi/bin/../lib/gcc/arm-bcm2708-linux-gnueabi/4.7.1/libgcc.a(_divsi3.o)
 .bss           0x00000000        0x0 /home/boricj/Documents/Projects/minix/src/releasetools/rpi-tools/arm-bcm2708/arm-bcm2708-linux-gnueabi/bin/../lib/gcc/arm-bcm2708-linux-gnueabi/4.7.1/libgcc.a(_divsi3.o)
 .data          0x00000000        0x0 /home/boricj/Documents/Projects/minix/src/releasetools/rpi-tools/arm-bcm2708/arm-bcm2708-linux-gnueabi/bin/../lib/gcc/arm-bcm2708-linux-gnueabi/4.7.1/libgcc.a(_lshrdi3.o)
 .bss           0x00000000        0x0 /home/boricj/Documents/Projects/minix/src/releasetools/rpi-tools/arm-bcm2708/arm-bcm2708-linux-gnueabi/bin/../lib/gcc/arm-bcm2708-linux-gnueabi/4.7.1/libgcc.a(_lshrdi3.o)
 .data          0x00000000        0x0 /home/boricj/Documents/Projects/minix/src/releasetools/rpi-tools/arm-bcm2708/arm-bcm2708-linux-gnueabi/bin/../lib/gcc/arm-bcm2708-linux-gnueabi/4.7.1/libgcc.a(_ashldi3.o)
 .bss           0x00000000        0x0 /home/boricj/Documents/Projects/minix/src/releasetools/rpi-tools/arm-bcm2708/arm-bcm2708-linux-gnueabi/bin/../lib/gcc/arm-bcm2708-linux-gnueabi/4.7.1/libgcc.a(_ashldi3.o)
 .data          0x00000000        0x0 /home/boricj/Documents/Projects/minix/src/releasetools/rpi-tools/arm-bcm2708/arm-bcm2708-linux-gnueabi/bin/../lib/gcc/arm-bcm2708-linux-gnueabi/4.7.1/libgcc.a(_dvmd_lnx.o)
 .bss           0x00000000        0x0 /home/boricj/Documents/Projects/minix/src/releasetools/rpi-tools/arm-bcm2708/arm-bcm2708-linux-gnueabi/bin/../lib/gcc/arm-bcm2708-linux-gnueabi/4.7.1/libgcc.a(_dvmd_lnx.o)

Memory Configuration

Name             Origin             Length             Attributes
*default*        0x00000000         0xffffffff

Linker script and memory map

Address of section .text set to 0x8000
                0x00000000                . = 0x0
                0x00000000                . = ALIGN (0x4)

.text           0x00008000    0x39604
 *(.__image_copy_start)
 .__image_copy_start
                0x00008000        0x0 arch/arm/lib/built-in.o
                0x00008000                __image_copy_start
 *(.vectors)
 .vectors       0x00008000      0x300 arch/arm/lib/built-in.o
                0x00008000                _start
                0x00008020                _undefined_instruction
                0x00008024                _software_interrupt
                0x00008028                _prefetch_abort
                0x0000802c                _data_abort
                0x00008030                _not_used
                0x00008034                _irq
                0x00008038                _fiq
                0x00008040                IRQ_STACK_START_IN
 arch/arm/cpu/arm1176/start.o(.text*)
 .text          0x00008300       0x60 arch/arm/cpu/arm1176/start.o
                0x00008300                reset
                0x00008358                c_runtime_cpu_setup
 *(.text*)
 .text.cleanup_before_linux
                0x00008360       0x28 arch/arm/cpu/arm1176/built-in.o
                0x00008360                cleanup_before_linux
 .text.flush_dcache_all
                0x00008388       0x10 arch/arm/cpu/arm1176/built-in.o
                0x00008388                flush_dcache_all
 .text.invalidate_dcache_range
                0x00008398       0x28 arch/arm/cpu/arm1176/built-in.o
                0x00008398                invalidate_dcache_range
 .text.flush_dcache_range
                0x000083c0       0x30 arch/arm/cpu/arm1176/built-in.o
                0x000083c0                flush_dcache_range
 .text.enable_caches
                0x000083f0       0x10 arch/arm/cpu/arm1176/built-in.o
                0x000083f0                enable_caches
 .text          0x00008400       0x90 arch/arm/lib/built-in.o
                0x00008400                _main
 .text.relocate_vectors
                0x00008490       0x70 arch/arm/lib/built-in.o
                0x00008490                relocate_vectors
                0x0000849c                relocate_code
 .text.arch_fixup_fdt
                0x00008500       0x38 arch/arm/lib/built-in.o
                0x00008500                arch_fixup_fdt
 .text.boot_jump_linux
                0x00008538       0xc0 arch/arm/lib/built-in.o
 .text.arch_lmb_reserve
                0x000085f8       0x24 arch/arm/lib/built-in.o
                0x000085f8                arch_lmb_reserve
 .text.setup_board_tags
                0x0000861c        0x4 arch/arm/lib/built-in.o
                0x0000861c                setup_board_tags
 .text.boot_prep_linux
                0x00008620      0x1c0 arch/arm/lib/built-in.o
 .text.do_bootm_linux
                0x000087e0       0x60 arch/arm/lib/built-in.o
                0x000087e0                do_bootm_linux
 .text.bootz_setup
                0x00008840       0x60 arch/arm/lib/built-in.o
                0x00008840                bootz_setup
 .text.boot_prep_vxworks
                0x000088a0       0x4c arch/arm/lib/built-in.o
                0x000088a0                boot_prep_vxworks
 .text.boot_jump_vxworks
                0x000088ec       0x14 arch/arm/lib/built-in.o
                0x000088ec                boot_jump_vxworks
 .text.arch_reserve_stacks
                0x00008900       0x1c arch/arm/lib/built-in.o
                0x00008900                arch_reserve_stacks
 .text.interrupt_init
                0x0000891c       0x1c arch/arm/lib/built-in.o
                0x0000891c                interrupt_init
 .text.enable_interrupts
                0x00008938        0x4 arch/arm/lib/built-in.o
                0x00008938                enable_interrupts
 .text.disable_interrupts
                0x0000893c        0x8 arch/arm/lib/built-in.o
                0x0000893c                disable_interrupts
 .text.bad_mode
                0x00008944       0x10 arch/arm/lib/built-in.o
                0x00008944                bad_mode
 .text.show_regs
                0x00008954      0x174 arch/arm/lib/built-in.o
                0x00008954                show_regs
 .text.do_undefined_instruction
                0x00008ac8       0x24 arch/arm/lib/built-in.o
                0x00008ac8                do_undefined_instruction
 .text.do_software_interrupt
                0x00008aec       0x24 arch/arm/lib/built-in.o
                0x00008aec                do_software_interrupt
 .text.do_prefetch_abort
                0x00008b10       0x24 arch/arm/lib/built-in.o
                0x00008b10                do_prefetch_abort
 .text.do_data_abort
                0x00008b34       0x24 arch/arm/lib/built-in.o
                0x00008b34                do_data_abort
 .text.do_not_used
                0x00008b58       0x24 arch/arm/lib/built-in.o
                0x00008b58                do_not_used
 .text.do_fiq   0x00008b7c       0x24 arch/arm/lib/built-in.o
                0x00008b7c                do_fiq
 .text.do_irq   0x00008ba0       0x24 arch/arm/lib/built-in.o
                0x00008ba0                do_irq
 .text.reset_misc
                0x00008bc4        0x4 arch/arm/lib/built-in.o
                0x00008bc4                reset_misc
 .text.do_reset
                0x00008bc8       0x34 arch/arm/lib/built-in.o
                0x00008bc8                do_reset
 .text.flush_cache
                0x00008bfc        0x8 arch/arm/lib/built-in.o
                0x00008bfc                flush_cache
 .text.cp_delay
                0x00008c04       0x30 arch/arm/lib/built-in.o
 .text.arm_init_before_mmu
                0x00008c34        0x4 arch/arm/lib/built-in.o
                0x00008c34                arm_init_before_mmu
 .text.arm_init_domains
                0x00008c38        0x4 arch/arm/lib/built-in.o
                0x00008c38                arm_init_domains
 .text.set_section_dcache
                0x00008c3c       0x14 arch/arm/lib/built-in.o
                0x00008c3c                set_section_dcache
 .text.mmu_page_table_flush
                0x00008c50        0x4 arch/arm/lib/built-in.o
                0x00008c50                mmu_page_table_flush
 .text.mmu_set_region_dcache_behaviour
                0x00008c54       0x50 arch/arm/lib/built-in.o
                0x00008c54                mmu_set_region_dcache_behaviour
 .text.dram_bank_mmu_setup
                0x00008ca4       0x4c arch/arm/lib/built-in.o
                0x00008ca4                dram_bank_mmu_setup
 .text.icache_enable
                0x00008cf0       0x18 arch/arm/lib/built-in.o
                0x00008cf0                icache_enable
 .text.icache_disable
                0x00008d08       0x20 arch/arm/lib/built-in.o
                0x00008d08                icache_disable
 .text.dcache_enable
                0x00008d28       0x6c arch/arm/lib/built-in.o
                0x00008d28                dcache_enable
 .text.dcache_disable
                0x00008d94       0x2c arch/arm/lib/built-in.o
                0x00008d94                dcache_disable
 .text.dcache_status
                0x00008dc0       0x10 arch/arm/lib/built-in.o
                0x00008dc0                dcache_status
 .text          0x00008dd0        0x4 arch/arm/mach-bcm283x/built-in.o
                0x00008dd0                lowlevel_init
 .text.arch_cpu_init
                0x00008dd4       0x10 arch/arm/mach-bcm283x/built-in.o
                0x00008dd4                arch_cpu_init
 .text.reset_cpu
                0x00008de4       0x2c arch/arm/mach-bcm283x/built-in.o
                0x00008de4                reset_cpu
 .text.bcm2835_mbox_call_raw
                0x00008e10      0x108 arch/arm/mach-bcm283x/built-in.o
                0x00008e10                bcm2835_mbox_call_raw
 .text.bcm2835_mbox_call_prop
                0x00008f18       0xe8 arch/arm/mach-bcm283x/built-in.o
                0x00008f18                bcm2835_mbox_call_prop
 .text.phys_to_bus
                0x00009000        0x8 arch/arm/mach-bcm283x/built-in.o
                0x00009000                phys_to_bus
 .text.bus_to_phys
                0x00009008        0x8 arch/arm/mach-bcm283x/built-in.o
                0x00009008                bus_to_phys
 .text.power_on_module
                0x00009010       0x88 board/raspberrypi/rpi/built-in.o
 .text.dram_init
                0x00009098       0x84 board/raspberrypi/rpi/built-in.o
                0x00009098                dram_init
 .text.misc_init_r
                0x0000911c      0x244 board/raspberrypi/rpi/built-in.o
                0x0000911c                misc_init_r
 .text.board_init
                0x00009360      0x168 board/raspberrypi/rpi/built-in.o
                0x00009360                board_init
 .text.board_mmc_init
                0x000094c8       0x9c board/raspberrypi/rpi/built-in.o
                0x000094c8                board_mmc_init
 .text.ft_board_setup
                0x00009564       0x10 board/raspberrypi/rpi/built-in.o
                0x00009564                ft_board_setup
 .text.do_go_exec
                0x00009574       0x18 cmd/built-in.o
                0x00009574                do_go_exec
 .text.do_go    0x0000958c       0x70 cmd/built-in.o
 .text.image_info
                0x000095fc       0xd8 cmd/built-in.o
 .text.do_bootd
                0x000096d4       0x20 cmd/built-in.o
                0x000096d4                do_bootd
 .text.do_bootm
                0x000096f4      0x108 cmd/built-in.o
                0x000096f4                do_bootm
 .text.do_iminfo
                0x000097fc       0x60 cmd/built-in.o
 .text.bootm_maybe_autostart
                0x0000985c       0x74 cmd/built-in.o
                0x0000985c                bootm_maybe_autostart
 .text.do_bootz
                0x000098d0       0xf8 cmd/built-in.o
                0x000098d0                do_bootz
 .text.do_help  0x000099c8       0x44 cmd/built-in.o
 .text.do_version
                0x00009a0c       0x38 cmd/built-in.o
 .text.source   0x00009a44      0x104 cmd/built-in.o
                0x00009a44                source
 .text.do_source
                0x00009b48       0x48 cmd/built-in.o
 .text.print_num
                0x00009b90       0x18 cmd/built-in.o
 .text.do_bdinfo
                0x00009ba8      0x18c cmd/built-in.o
 .text.bootefi_open_dp
                0x00009d34       0x14 cmd/built-in.o
 .text.do_bootefi_exec
                0x00009d48      0x26c cmd/built-in.o
 .text.do_bootefi
                0x00009fb4       0x90 cmd/built-in.o
 .text.efi_set_bootdev
                0x0000a044      0x15c cmd/built-in.o
                0x0000a044                efi_set_bootdev
 .text.do_coninfo
                0x0000a1a0       0xac cmd/built-in.o
 .text.do_echo  0x0000a24c       0xb0 cmd/built-in.o
 .text.load_elf_image_shdr
                0x0000a2fc       0x8c cmd/built-in.o
 .text.valid_elf_image
                0x0000a388       0x4c cmd/built-in.o
                0x0000a388                valid_elf_image
 .text.do_bootvx
                0x0000a3d4      0x364 cmd/built-in.o
                0x0000a3d4                do_bootvx
 .text.do_bootelf
                0x0000a738      0x1c0 cmd/built-in.o
                0x0000a738                do_bootelf
 .text.do_exit  0x0000a8f8       0x34 cmd/built-in.o
 .text.do_ext4_ls
                0x0000a92c       0x14 cmd/built-in.o
                0x0000a92c                do_ext4_ls
 .text.do_ext4_load
                0x0000a940       0x14 cmd/built-in.o
                0x0000a940                do_ext4_load
 .text.do_ext4_size
                0x0000a954       0x14 cmd/built-in.o
                0x0000a954                do_ext4_size
 .text.do_ext2ls
                0x0000a968       0x14 cmd/built-in.o
 .text.do_ext2load
                0x0000a97c       0x14 cmd/built-in.o
                0x0000a97c                do_ext2load
 .text.do_fat_fswrite
                0x0000a990      0x10c cmd/built-in.o
 .text.do_fat_fsinfo
                0x0000aa9c       0x90 cmd/built-in.o
 .text.do_fat_ls
                0x0000ab2c       0x14 cmd/built-in.o
 .text.do_fat_fsload
                0x0000ab40       0x14 cmd/built-in.o
                0x0000ab40                do_fat_fsload
 .text.do_fat_size
                0x0000ab54       0x14 cmd/built-in.o
                0x0000ab54                do_fat_size
 .text.fdt_valid
                0x0000ab68       0xfc cmd/built-in.o
 .text.is_printable_string
                0x0000ac64       0x90 cmd/built-in.o
 .text.print_data
                0x0000acf4      0x184 cmd/built-in.o
 .text.set_working_fdt_addr
                0x0000ae78       0x1c cmd/built-in.o
                0x0000ae78                set_working_fdt_addr
 .text.do_fdt   0x0000ae94     0x1060 cmd/built-in.o
 .text.do_fstype_wrapper
                0x0000bef4        0x4 cmd/built-in.o
 .text.do_ls_wrapper
                0x0000bef8       0x14 cmd/built-in.o
 .text.do_save_wrapper
                0x0000bf0c       0x14 cmd/built-in.o
 .text.do_load_wrapper
                0x0000bf20       0x68 cmd/built-in.o
 .text.do_size_wrapper
                0x0000bf88       0x14 cmd/built-in.o
 .text.gpio_get_description
                0x0000bf9c       0xc4 cmd/built-in.o
 .text.do_gpio  0x0000c060      0x380 cmd/built-in.o
 .text.evalexp  0x0000c3e0       0x78 cmd/built-in.o
 .text.evalstr  0x0000c458       0x70 cmd/built-in.o
 .text.binary_test
                0x0000c4c8      0x19c cmd/built-in.o
 .text.do_itest
                0x0000c664       0x98 cmd/built-in.o
 .text.bin_data_init
                0x0000c6fc       0x2c cmd/built-in.o
 .text.k_data_restore
                0x0000c728       0x4c cmd/built-in.o
 .text.load_serial_ymodem
                0x0000c774       0xe0 cmd/built-in.o
 .text.getcxmodem
                0x0000c854       0x20 cmd/built-in.o
 .text.bin_data_char
                0x0000c874       0x28 cmd/built-in.o
 .text.chk1.constprop.1
                0x0000c89c       0x30 cmd/built-in.o
 .text.s1_sendpacket.constprop.2
                0x0000c8cc       0x50 cmd/built-in.o
 .text.load_serial
                0x0000c91c      0x1fc cmd/built-in.o
 .text.do_load_serial
                0x0000cb18       0xe0 cmd/built-in.o
 .text.do_load_serial_bin
                0x0000cbf8      0x80c cmd/built-in.o
 .text.do_mem_loop
                0x0000d404       0xfc cmd/built-in.o
 .text.do_mem_mw
                0x0000d500       0xc4 cmd/built-in.o
 .text.do_mem_base
                0x0000d5c4       0x40 cmd/built-in.o
 .text.do_mem_cmp
                0x0000d604      0x16c cmd/built-in.o
 .text.do_mem_crc
                0x0000d770       0x48 cmd/built-in.o
 .text.do_mem_cp
                0x0000d7b8       0xd8 cmd/built-in.o
 .text.do_mem_md
                0x0000d890       0xec cmd/built-in.o
 .text.mod_mem.isra.2
                0x0000d97c      0x178 cmd/built-in.o
 .text.do_mem_nm
                0x0000daf4        0x8 cmd/built-in.o
 .text.do_mem_mm
                0x0000dafc        0x8 cmd/built-in.o
 .text.extract_range
                0x0000db04       0x4c cmd/built-in.o
 .text.do_mii   0x0000db50      0x900 cmd/built-in.o
 .text.do_sleep
                0x0000e450       0x70 cmd/built-in.o
 .text.init_mmc_device
                0x0000e4c0       0x50 cmd/built-in.o
 .text.do_mmc_rescan
                0x0000e510       0x24 cmd/built-in.o
 .text.do_mmcinfo
                0x0000e534      0x3a8 cmd/built-in.o
 .text.do_mmcops
                0x0000e8dc       0xbc cmd/built-in.o
 .text.do_mmc_hwpartition
                0x0000e998      0x510 cmd/built-in.o
 .text.do_mmc_list
                0x0000eea8       0x14 cmd/built-in.o
 .text.do_mmc_dev
                0x0000eebc      0x134 cmd/built-in.o
 .text.do_mmc_part
                0x0000eff0       0x5c cmd/built-in.o
 .text.do_mmc_erase
                0x0000f04c       0xf0 cmd/built-in.o
 .text.do_mmc_write
                0x0000f13c      0x108 cmd/built-in.o
 .text.do_mmc_read
                0x0000f244       0xec cmd/built-in.o
 .text.do_mmc_setdsr
                0x0000f330       0xb0 cmd/built-in.o
 .text.netboot_common
                0x0000f3e0      0x2a8 cmd/built-in.o
 .text.do_nfs   0x0000f688        0xc cmd/built-in.o
 .text.do_dhcp  0x0000f694        0xc cmd/built-in.o
 .text.do_bootp
                0x0000f6a0        0xc cmd/built-in.o
 .text.do_tftpb
                0x0000f6ac       0x40 cmd/built-in.o
                0x0000f6ac                do_tftpb
 .text.do_ping  0x0000f6ec       0x74 cmd/built-in.o
 .text.do_part_list
                0x0000f760      0x174 cmd/built-in.o
 .text.do_part_start
                0x0000f8d4       0xcc cmd/built-in.o
 .text.do_part_size
                0x0000f9a0       0xcc cmd/built-in.o
 .text.do_part  0x0000fa6c      0x118 cmd/built-in.o
 .text.eol_or_eof
                0x0000fb84       0x24 cmd/built-in.o
 .text.from_env
                0x0000fba8       0x2c cmd/built-in.o
 .text.label_print
                0x0000fbd4       0x1c cmd/built-in.o
 .text.get_string
                0x0000fbf0       0xd4 cmd/built-in.o
 .text.label_destroy
                0x0000fcc4       0x74 cmd/built-in.o
 .text.destroy_pxe_menu
                0x0000fd38       0x5c cmd/built-in.o
 .text.get_token
                0x0000fd94      0x128 cmd/built-in.o
 .text.parse_sliteral
                0x0000febc       0x54 cmd/built-in.o
 .text.parse_integer
                0x0000ff10       0x6c cmd/built-in.o
 .text.do_get_any
                0x0000ff7c       0x40 cmd/built-in.o
 .text.do_get_fat
                0x0000ffbc       0x3c cmd/built-in.o
 .text.do_get_ext2
                0x0000fff8       0x3c cmd/built-in.o
 .text.do_pxe   0x00010034       0x6c cmd/built-in.o
 .text.do_get_tftp
                0x000100a0       0x44 cmd/built-in.o
 .text.format_mac_pxe.constprop.7
                0x000100e4       0x78 cmd/built-in.o
 .text.get_relfile
                0x0001015c      0x13c cmd/built-in.o
 .text.get_pxe_file
                0x00010298       0x60 cmd/built-in.o
 .text.get_pxelinux_path
                0x000102f8       0x80 cmd/built-in.o
 .text.do_pxe_get
                0x00010378      0x178 cmd/built-in.o
 .text.handle_include
                0x000104f0       0xa4 cmd/built-in.o
 .text.parse_pxefile_top
                0x00010594      0x498 cmd/built-in.o
 .text.parse_pxefile
                0x00010a2c       0x6c cmd/built-in.o
 .text.get_relfile_envaddr
                0x00010a98       0x54 cmd/built-in.o
 .text.label_boot
                0x00010aec      0x5a4 cmd/built-in.o
 .text.handle_pxe_menu
                0x00011090      0x170 cmd/built-in.o
 .text.do_sysboot
                0x00011200      0x1e8 cmd/built-in.o
 .text.do_pxe_boot
                0x000113e8       0xdc cmd/built-in.o
 .text.get_arg  0x000114c4       0x60 cmd/built-in.o
 .text.substitute
                0x00011524       0xf8 cmd/built-in.o
 .text.regex_sub
                0x0001161c      0x3f8 cmd/built-in.o
 .text.do_setexpr
                0x00011a14      0x1a4 cmd/built-in.o
 .text.do_false
                0x00011bb8        0x8 cmd/built-in.o
 .text.do_true  0x00011bc0        0x8 cmd/built-in.o
 .text.do_test  0x00011bc8      0x354 cmd/built-in.o
 .text.usb_get_class_desc
                0x00011f1c       0xc4 cmd/built-in.o
 .text.do_usbboot
                0x00011fe0        0xc cmd/built-in.o
 .text.usb_display_class_sub
                0x00011fec      0x188 cmd/built-in.o
 .text.usb_find_device
                0x00012174       0x3c cmd/built-in.o
 .text.usb_show_tree_graph
                0x000121b0      0x228 cmd/built-in.o
 .text.usb_display_string
                0x000123d8       0x44 cmd/built-in.o
 .text.usb_display_config
                0x0001241c      0x22c cmd/built-in.o
 .text.do_usb_start
                0x00012648       0x48 cmd/built-in.o
 .text.usb_display_desc.part.5
                0x00012690      0x124 cmd/built-in.o
 .text.usb_show_tree
                0x000127b4       0x54 cmd/built-in.o
                0x000127b4                usb_show_tree
 .text.do_usb   0x00012808      0x76c cmd/built-in.o
 .text.do_imgextract
                0x00012f74      0x294 cmd/built-in.o
 .text.do_env_delete
                0x00013208       0xa8 cmd/built-in.o
 .text.do_env_exists
                0x000132b0       0x64 cmd/built-in.o
 .text.env_print
                0x00013314       0xc8 cmd/built-in.o
 .text.do_env_print
                0x000133dc       0xc8 cmd/built-in.o
 .text.do_env   0x000134a4       0x5c cmd/built-in.o
 .text.do_env_import
                0x00013500      0x2a4 cmd/built-in.o
 .text.do_env_default
                0x000137a4       0xb4 cmd/built-in.o
 .text.do_env_save
                0x00013858       0x2c cmd/built-in.o
 .text._do_env_set.isra.1
                0x00013884      0x1d8 cmd/built-in.o
 .text.do_env_set
                0x00013a5c       0x20 cmd/built-in.o
 .text.get_env_id
                0x00013a7c       0x10 cmd/built-in.o
                0x00013a7c                get_env_id
 .text.setenv   0x00013a8c       0x64 cmd/built-in.o
                0x00013a8c                setenv
 .text.setenv_ulong
                0x00013af0       0x20 cmd/built-in.o
                0x00013af0                setenv_ulong
 .text.setenv_hex
                0x00013b10       0x34 cmd/built-in.o
                0x00013b10                setenv_hex
 .text.do_env_export
                0x00013b44      0x274 cmd/built-in.o
 .text.envmatch
                0x00013db8       0x6c cmd/built-in.o
                0x00013db8                envmatch
 .text.getenv_f
                0x00013e24       0xd0 cmd/built-in.o
                0x00013e24                getenv_f
 .text.getenv   0x00013ef4       0x78 cmd/built-in.o
                0x00013ef4                getenv
 .text.do_env_edit.part.3
                0x00013f6c       0xac cmd/built-in.o
 .text.do_env_edit
                0x00014018       0x2c cmd/built-in.o
 .text.getenv_ulong
                0x00014044       0x30 cmd/built-in.o
                0x00014044                getenv_ulong
 .text.getenv_hex
                0x00014074       0x34 cmd/built-in.o
                0x00014074                getenv_hex
 .text.common_diskboot
                0x000140a8      0x24c cmd/built-in.o
                0x000140a8                common_diskboot
 .text.board_init_f_alloc_reserve
                0x000142f4       0x10 common/built-in.o
                0x000142f4                board_init_f_alloc_reserve
 .text.board_init_f_init_reserve
                0x00014304       0x20 common/built-in.o
                0x00014304                board_init_f_init_reserve
 .text.show_boot_progress
                0x00014324        0x4 common/built-in.o
                0x00014324                show_boot_progress
 .text.main_loop
                0x00014328       0x48 common/built-in.o
                0x00014328                main_loop
 .text.dummy    0x00014370        0x4 common/built-in.o
 .text.get_version
                0x00014374        0x8 common/built-in.o
                0x00014374                get_version
 .text.jumptable_init
                0x0001437c      0x1d0 common/built-in.o
                0x0001437c                jumptable_init
 .text.hash_command
                0x0001454c       0xb0 common/built-in.o
                0x0001454c                hash_command
 .text.b_reset  0x000145fc       0x1c common/built-in.o
 .text.static_get
                0x00014618       0x1c common/built-in.o
 .text.static_peek
                0x00014634        0xc common/built-in.o
 .text.file_peek
                0x00014640        0xc common/built-in.o
 .text.mapset   0x0001464c       0x24 common/built-in.o
 .text.syntax_err
                0x00014670        0xc common/built-in.o
 .text.do_showvar
                0x0001467c       0xf4 common/built-in.o
 .text.xmalloc  0x00014770       0x20 common/built-in.o
 .text.new_pipe
                0x00014790       0x28 common/built-in.o
 .text.free_pipe_list
                0x000147b8       0xfc common/built-in.o
 .text.xrealloc
                0x000148b4       0x20 common/built-in.o
 .text.done_command
                0x000148d4       0x8c common/built-in.o
 .text.done_pipe
                0x00014960       0x48 common/built-in.o
 .text.done_word
                0x000149a8      0x2f0 common/built-in.o
 .text.is_assignment
                0x00014c98       0x54 common/built-in.o
 .text.file_get
                0x00014cec      0x1e8 common/built-in.o
 .text.b_addchr
                0x00014ed4       0x80 common/built-in.o
 .text.b_addqchr
                0x00014f54       0x50 common/built-in.o
 .text.get_local_var
                0x00014fa4       0x98 common/built-in.o
                0x00014fa4                get_local_var
 .text.set_local_var
                0x0001503c      0x1d0 common/built-in.o
                0x0001503c                set_local_var
 .text.insert_var_value_sub
                0x0001520c      0x2b0 common/built-in.o
 .text.parse_string_outer
                0x000154bc       0xf8 common/built-in.o
                0x000154bc                parse_string_outer
 .text.run_list_real
                0x000155b4      0x7ec common/built-in.o
 .text.parse_stream_outer
                0x00015da0      0x6fc common/built-in.o
 .text.parse_file_outer
                0x0001649c       0x44 common/built-in.o
                0x0001649c                parse_file_outer
 .text.u_boot_hush_start
                0x000164e0       0x54 common/built-in.o
                0x000164e0                u_boot_hush_start
 .text.bootdelay_process
                0x00016534       0x50 common/built-in.o
                0x00016534                bootdelay_process
 .text.autoboot_command
                0x00016584       0xe0 common/built-in.o
                0x00016584                autoboot_command
 .text.print_cpuinfo
                0x00016664        0x8 common/built-in.o
 .text.display_text_info
                0x0001666c        0x8 common/built-in.o
 .text.setup_mon_len
                0x00016674       0x20 common/built-in.o
 .text.reserve_round_4k
                0x00016694       0x18 common/built-in.o
 .text.reserve_mmu
                0x000166ac       0x38 common/built-in.o
 .text.reserve_lcd
                0x000166e4        0xc common/built-in.o
 .text.reserve_trace
                0x000166f0        0x8 common/built-in.o
 .text.reserve_uboot
                0x000166f8       0x30 common/built-in.o
 .text.reserve_malloc
                0x00016728       0x18 common/built-in.o
 .text.setup_machine
                0x00016740       0x18 common/built-in.o
 .text.reserve_global_data
                0x00016758       0x1c common/built-in.o
 .text.reserve_fdt
                0x00016774       0x60 common/built-in.o
 .text.display_new_sp
                0x000167d4        0x8 common/built-in.o
 .text.initf_console_record
                0x000167dc        0x8 common/built-in.o
 .text.reserve_arch
                0x000167e4        0x8 common/built-in.o
                0x000167e4                reserve_arch
 .text.arch_cpu_init_dm
                0x000167ec        0x8 common/built-in.o
                0x000167ec                arch_cpu_init_dm
 .text.announce_dram_init
                0x000167f4       0x18 common/built-in.o
 .text.init_baud_rate
                0x0001680c       0x2c common/built-in.o
 .text.mark_bootstage
                0x00016838       0x14 common/built-in.o
 .text.initf_dm
                0x0001684c        0x8 common/built-in.o
 .text.setup_reloc
                0x00016854       0x34 common/built-in.o
 .text.reloc_fdt
                0x00016888       0x3c common/built-in.o
 .text.reserve_board
                0x000168c4       0x38 common/built-in.o
 .text.coloured_LED_init
                0x000168fc        0x4 common/built-in.o
                0x000168fc                coloured_LED_init
 .text.red_led_on
                0x00016900        0x4 common/built-in.o
                0x00016900                red_led_on
 .text.board_add_ram_info
                0x00016904        0x4 common/built-in.o
                0x00016904                board_add_ram_info
 .text.show_dram_config
                0x00016908       0x38 common/built-in.o
 .text.dram_init_banksize
                0x00016940       0x20 common/built-in.o
                0x00016940                dram_init_banksize
 .text.setup_dram_config
                0x00016960       0x10 common/built-in.o
 .text.board_get_usable_ram_top
                0x00016970        0xc common/built-in.o
                0x00016970                board_get_usable_ram_top
 .text.board_reserve_ram_top
                0x0001697c        0x4 common/built-in.o
                0x0001697c                board_reserve_ram_top
 .text.setup_dest_addr
                0x00016980       0x50 common/built-in.o
 .text.reserve_stacks
                0x000169d0       0x1c common/built-in.o
 .text.board_init_f
                0x000169ec       0x28 common/built-in.o
                0x000169ec                board_init_f
 .text.bootstage_relocate
                0x00016a14        0x8 common/built-in.o
 .text.initr_trace
                0x00016a1c        0x8 common/built-in.o
 .text.initr_reloc
                0x00016a24       0x18 common/built-in.o
 .text.initr_barrier
                0x00016a3c        0x8 common/built-in.o
 .text.initr_console_record
                0x00016a44        0x8 common/built-in.o
 .text.power_init_board
                0x00016a4c        0x8 common/built-in.o
                0x00016a4c                power_init_board
 .text.initr_announce
                0x00016a54        0x8 common/built-in.o
 .text.run_main_loop
                0x00016a5c        0xc common/built-in.o
 .text.initr_net
                0x00016a68       0x1c common/built-in.o
 .text.initr_ethaddr
                0x00016a84       0x20 common/built-in.o
 .text.initr_enable_interrupts
                0x00016aa4       0x10 common/built-in.o
 .text.initr_jumptable
                0x00016ab4       0x10 common/built-in.o
 .text.initr_env
                0x00016ac4       0x30 common/built-in.o
 .text.initr_mmc
                0x00016af4       0x20 common/built-in.o
 .text.initr_serial
                0x00016b14       0x10 common/built-in.o
 .text.initr_bootstage
                0x00016b24       0x14 common/built-in.o
 .text.initr_dm
                0x00016b38       0x14 common/built-in.o
 .text.initr_malloc
                0x00016b4c       0x24 common/built-in.o
 .text.initr_reloc_global_data
                0x00016b70       0x38 common/built-in.o
 .text.initr_caches
                0x00016ba8       0x10 common/built-in.o
 .text.cpu_secondary_init_r
                0x00016bb8        0x4 common/built-in.o
                0x00016bb8                cpu_secondary_init_r
 .text.initr_secondary_cpu
                0x00016bbc       0x10 common/built-in.o
 .text.board_init_r
                0x00016bcc       0x14 common/built-in.o
                0x00016bcc                board_init_r
 .text.bootm_find_images
                0x00016be0       0xa8 common/built-in.o
                0x00016be0                bootm_find_images
 .text.bootm_decomp_image
                0x00016c88      0x154 common/built-in.o
                0x00016c88                bootm_decomp_image
 .text.bootm_disable_interrupts
                0x00016ddc       0x18 common/built-in.o
                0x00016ddc                bootm_disable_interrupts
 .text.do_bootm_states
                0x00016df4      0x7d4 common/built-in.o
                0x00016df4                do_bootm_states
 .text.copy_args
                0x000175c8       0x4c common/built-in.o
 .text.do_bootm_rtems
                0x00017614       0x40 common/built-in.o
 .text.do_bootm_plan9
                0x00017654       0xa4 common/built-in.o
 .text.do_bootm_standalone
                0x000176f8       0x64 common/built-in.o
 .text.do_bootm_qnxelf
                0x0001775c       0x5c common/built-in.o
 .text.do_bootm_netbsd
                0x000177b8       0xf8 common/built-in.o
 .text.do_bootvx_fdt
                0x000178b0      0x114 common/built-in.o
                0x000178b0                do_bootvx_fdt
 .text.do_bootm_vxworks
                0x000179c4       0x24 common/built-in.o
 .text.arch_preboot_os
                0x000179e8        0x4 common/built-in.o
                0x000179e8                arch_preboot_os
 .text.boot_selected_os
                0x000179ec       0x5c common/built-in.o
                0x000179ec                boot_selected_os
 .text.bootm_os_get_boot_func
                0x00017a48       0x10 common/built-in.o
                0x00017a48                bootm_os_get_boot_func
 .text.regex_callback
                0x00017a58      0x138 common/built-in.o
 .text.env_attr_walk
                0x00017b90      0x128 common/built-in.o
                0x00017b90                env_attr_walk
 .text.env_attr_lookup
                0x00017cb8       0x84 common/built-in.o
                0x00017cb8                env_attr_lookup
 .text.clear_callback
                0x00017d3c       0x10 common/built-in.o
 .text.on_callbacks
                0x00017d4c       0x50 common/built-in.o
 .text.set_callback
                0x00017d9c       0xdc common/built-in.o
 .text.env_callback_init
                0x00017e78      0x114 common/built-in.o
                0x00017e78                env_callback_init
 .text.skip_num
                0x00017f8c       0x80 common/built-in.o
 .text.clear_flags
                0x0001800c       0x10 common/built-in.o
 .text.on_flags
                0x0001801c       0x50 common/built-in.o
 .text.env_flags_parse_vartype
                0x0001806c       0x50 common/built-in.o
                0x0001806c                env_flags_parse_vartype
 .text.env_flags_parse_varaccess
                0x000180bc       0x58 common/built-in.o
                0x000180bc                env_flags_parse_varaccess
 .text.set_flags
                0x00018114       0xb0 common/built-in.o
 .text.eth_validate_ethaddr_str
                0x000181c4       0x90 common/built-in.o
                0x000181c4                eth_validate_ethaddr_str
 .text.env_flags_init
                0x00018254       0xd4 common/built-in.o
                0x00018254                env_flags_init
 .text.env_flags_validate
                0x00018328      0x294 common/built-in.o
                0x00018328                env_flags_validate
 .text.env_init
                0x000185bc       0x1c common/built-in.o
                0x000185bc                env_init
 .text.saveenv  0x000185d8      0x118 common/built-in.o
                0x000185d8                saveenv
 .text.env_relocate_spec
                0x000186f0       0xf4 common/built-in.o
                0x000186f0                env_relocate_spec
 .text.of_bus_default_count_cells
                0x000187e4       0x70 common/built-in.o
                0x000187e4                of_bus_default_count_cells
 .text.fdt_find_and_setprop
                0x00018854       0x70 common/built-in.o
                0x00018854                fdt_find_and_setprop
 .text.fdt_find_or_add_subnode
                0x000188c4       0x68 common/built-in.o
                0x000188c4                fdt_find_or_add_subnode
 .text.fdt_root
                0x0001892c       0x8c common/built-in.o
                0x0001892c                fdt_root
 .text.fdt_initrd
                0x000189b8      0x2ac common/built-in.o
                0x000189b8                fdt_initrd
 .text.fdt_chosen
                0x00018c64       0xa4 common/built-in.o
                0x00018c64                fdt_chosen
 .text.do_fixup_by_path
                0x00018d08       0x54 common/built-in.o
                0x00018d08                do_fixup_by_path
 .text.fdt_fixup_memory_banks
                0x00018d5c      0x280 common/built-in.o
                0x00018d5c                fdt_fixup_memory_banks
 .text.fdt_fixup_memory
                0x00018fdc       0x20 common/built-in.o
                0x00018fdc                fdt_fixup_memory
 .text.fdt_fixup_ethernet
                0x00018ffc      0x190 common/built-in.o
                0x00018ffc                fdt_fixup_ethernet
 .text.fdt_shrink_to_minimum
                0x0001918c      0x114 common/built-in.o
                0x0001918c                fdt_shrink_to_minimum
 .text.fdt_setup_simplefb_node
                0x000192a0      0x274 common/built-in.o
                0x000192a0                fdt_setup_simplefb_node
 .text.miiphy_get_dev_by_name
                0x00019514       0x5c common/built-in.o
                0x00019514                miiphy_get_dev_by_name
 .text.miiphy_init
                0x00019570       0x24 common/built-in.o
                0x00019570                miiphy_init
 .text.miiphy_set_current_dev
                0x00019594       0x40 common/built-in.o
                0x00019594                miiphy_set_current_dev
 .text.miiphy_get_active_dev
                0x000195d4       0x54 common/built-in.o
 .text.miiphy_get_current_dev
                0x00019628       0x18 common/built-in.o
                0x00019628                miiphy_get_current_dev
 .text.miiphy_read
                0x00019640       0x4c common/built-in.o
                0x00019640                miiphy_read
 .text.miiphy_write
                0x0001968c       0x40 common/built-in.o
                0x0001968c                miiphy_write
 .text.miiphy_listdev
                0x000196cc       0x74 common/built-in.o
                0x000196cc                miiphy_listdev
 .text.miiphy_info
                0x00019740       0x8c common/built-in.o
                0x00019740                miiphy_info
 .text.miiphy_speed
                0x000197cc       0x90 common/built-in.o
                0x000197cc                miiphy_speed
 .text.miiphy_duplex
                0x0001985c       0x90 common/built-in.o
                0x0001985c                miiphy_duplex
 .text.miiphy_is_1000base_x
                0x000198ec        0x8 common/built-in.o
                0x000198ec                miiphy_is_1000base_x
 .text.usb_set_maxpacket_ep
                0x000198f4       0x68 common/built-in.o
 .text.usb_stop
                0x0001995c       0x5c common/built-in.o
                0x0001995c                usb_stop
 .text.usb_disable_asynch
                0x000199b8       0x20 common/built-in.o
                0x000199b8                usb_disable_asynch
 .text.usb_submit_int_msg
                0x000199d8        0x4 common/built-in.o
                0x000199d8                usb_submit_int_msg
 .text.usb_control_msg
                0x000199dc       0xcc common/built-in.o
                0x000199dc                usb_control_msg
 .text.usb_get_descriptor
                0x00019aa8       0x5c common/built-in.o
 .text.get_descriptor_len
                0x00019b04       0x90 common/built-in.o
 .text.usb_get_string
                0x00019b94       0x6c common/built-in.o
 .text.usb_string_sub
                0x00019c00      0x110 common/built-in.o
 .text.usb_bulk_msg
                0x00019d10       0x7c common/built-in.o
                0x00019d10                usb_bulk_msg
 .text.usb_maxpacket
                0x00019d8c       0x1c common/built-in.o
                0x00019d8c                usb_maxpacket
 .text.usb_clear_halt
                0x00019da8       0xa4 common/built-in.o
                0x00019da8                usb_clear_halt
 .text.usb_get_configuration_len
                0x00019e4c       0x78 common/built-in.o
                0x00019e4c                usb_get_configuration_len
 .text.usb_get_configuration_no
                0x00019ec4       0x2c common/built-in.o
                0x00019ec4                usb_get_configuration_no
 .text.usb_set_interface
                0x00019ef0       0xc4 common/built-in.o
                0x00019ef0                usb_set_interface
 .text.usb_set_protocol
                0x00019fb4       0x54 common/built-in.o
                0x00019fb4                usb_set_protocol
 .text.usb_set_idle
                0x0001a008       0x58 common/built-in.o
                0x0001a008                usb_set_idle
 .text.usb_string
                0x0001a060      0x10c common/built-in.o
                0x0001a060                usb_string
 .text.usb_get_dev_index
                0x0001a16c       0x24 common/built-in.o
                0x0001a16c                usb_get_dev_index
 .text.usb_alloc_new_device
                0x0001a190       0x94 common/built-in.o
                0x0001a190                usb_alloc_new_device
 .text.usb_free_device
                0x0001a224       0x48 common/built-in.o
                0x0001a224                usb_free_device
 .text.usb_alloc_device
                0x0001a26c        0x8 common/built-in.o
                0x0001a26c                usb_alloc_device
 .text.usb_select_config
                0x0001a274      0x478 common/built-in.o
                0x0001a274                usb_select_config
 .text.usb_setup_device
                0x0001a6ec      0x180 common/built-in.o
                0x0001a6ec                usb_setup_device
 .text.usb_new_device
                0x0001a86c       0x30 common/built-in.o
                0x0001a86c                usb_new_device
 .text.usb_init
                0x0001a89c      0x150 common/built-in.o
                0x0001a89c                usb_init
 .text.board_usb_init
                0x0001a9ec        0x8 common/built-in.o
                0x0001a9ec                board_usb_init
 .text.usb_device_has_child_on_port
                0x0001a9f4       0x14 common/built-in.o
                0x0001a9f4                usb_device_has_child_on_port
 .text.usb_find_usb2_hub_address_port
                0x0001aa08       0x5c common/built-in.o
                0x0001aa08                usb_find_usb2_hub_address_port
 .text.usb_get_hub_descriptor
                0x0001aa64       0x50 common/built-in.o
 .text.usb_set_port_feature
                0x0001aab4       0x54 common/built-in.o
 .text.usb_clear_port_feature
                0x0001ab08       0x54 common/built-in.o
 .text.usb_hub_reset_devices
                0x0001ab5c        0x4 common/built-in.o
                0x0001ab5c                usb_hub_reset_devices
 .text.usb_get_port_status
                0x0001ab60       0x50 common/built-in.o
                0x0001ab60                usb_get_port_status
 .text.usb_hub_reset
                0x0001abb0       0x20 common/built-in.o
                0x0001abb0                usb_hub_reset
 .text.legacy_hub_port_reset
                0x0001abd0       0x9c common/built-in.o
                0x0001abd0                legacy_hub_port_reset
 .text.usb_hub_port_connect_change
                0x0001ac6c      0x160 common/built-in.o
                0x0001ac6c                usb_hub_port_connect_change
 .text.usb_hub_configure
                0x0001adcc      0x4ac common/built-in.o
 .text.usb_hub_probe
                0x0001b278       0x58 common/built-in.o
                0x0001b278                usb_hub_probe
 .text.usb_stor_irq
                0x0001b2d0       0x1c common/built-in.o
 .text.usb_stor_BBB_clear_endpt_stall
                0x0001b2ec       0x44 common/built-in.o
 .text.usb_stor_BBB_reset
                0x0001b330       0xd0 common/built-in.o
 .text.usb_stor_CB_reset
                0x0001b400       0xd0 common/built-in.o
 .text.usb_stor_BBB_transport
                0x0001b4d0      0x260 common/built-in.o
 .text.usb_stor_CB_comdat
                0x0001b730      0x1f0 common/built-in.o
 .text.usb_stor_CBI_get_status.isra.0
                0x0001b920       0xcc common/built-in.o
 .text.usb_stor_CB_transport
                0x0001b9ec      0x224 common/built-in.o
 .text.usb_request_sense.constprop.7
                0x0001bc10       0x70 common/built-in.o
 .text.usb_stor_read
                0x0001bc80      0x180 common/built-in.o
 .text.usb_stor_write
                0x0001be00      0x180 common/built-in.o
 .text.usb_stor_get_dev
                0x0001bf80       0x28 common/built-in.o
                0x0001bf80                usb_stor_get_dev
 .text.usb_stor_info
                0x0001bfa8       0x78 common/built-in.o
                0x0001bfa8                usb_stor_info
 .text.usb_storage_probe
                0x0001c020      0x210 common/built-in.o
                0x0001c020                usb_storage_probe
 .text.usb_stor_get_info
                0x0001c230      0x350 common/built-in.o
                0x0001c230                usb_stor_get_info
 .text.usb_stor_scan
                0x0001c580      0x20c common/built-in.o
                0x0001c580                usb_stor_scan
 .text.iomux_doenv
                0x0001c78c      0x1d0 common/built-in.o
                0x0001c78c                iomux_doenv
 .text.lcd_stub_puts
                0x0001c95c        0x8 common/built-in.o
 .text.lcd_stub_putc
                0x0001c964        0x8 common/built-in.o
 .text.lcd_set_flush_dcache
                0x0001c96c       0x18 common/built-in.o
                0x0001c96c                lcd_set_flush_dcache
 .text.lcd_sync
                0x0001c984       0x3c common/built-in.o
                0x0001c984                lcd_sync
 .text.lcd_clear
                0x0001c9c0       0xac common/built-in.o
                0x0001c9c0                lcd_clear
 .text.do_lcd_clear
                0x0001ca6c       0x10 common/built-in.o
 .text.drv_lcd_init
                0x0001ca7c       0xc4 common/built-in.o
                0x0001ca7c                drv_lcd_init
 .text.lcd_getfgcolor
                0x0001cb40       0x10 common/built-in.o
                0x0001cb40                lcd_getfgcolor
 .text.lcd_getbgcolor
                0x0001cb50       0x10 common/built-in.o
                0x0001cb50                lcd_getbgcolor
 .text.lcd_get_pixel_width
                0x0001cb60       0x10 common/built-in.o
                0x0001cb60                lcd_get_pixel_width
 .text.lcd_get_pixel_height
                0x0001cb70       0x10 common/built-in.o
                0x0001cb70                lcd_get_pixel_height
 .text.console_setrow0
                0x0001cb80       0x28 common/built-in.o
 .text.console_moverow0
                0x0001cba8       0x34 common/built-in.o
 .text.lcd_putc_xy0
                0x0001cbdc       0x94 common/built-in.o
 .text.lcd_set_col
                0x0001cc70       0x10 common/built-in.o
                0x0001cc70                lcd_set_col
 .text.lcd_set_row
                0x0001cc80       0x10 common/built-in.o
                0x0001cc80                lcd_set_row
 .text.lcd_position_cursor
                0x0001cc90       0x58 common/built-in.o
                0x0001cc90                lcd_position_cursor
 .text.do_lcd_setcursor
                0x0001cce8       0x50 common/built-in.o
 .text.lcd_init_console_rot
                0x0001cd38        0x4 common/built-in.o
                0x0001cd38                lcd_init_console_rot
 .text.lcd_init_console
                0x0001cd3c       0x7c common/built-in.o
                0x0001cd3c                lcd_init_console
 .text.lcd_putc
                0x0001cdb8      0x334 common/built-in.o
                0x0001cdb8                lcd_putc
 .text.lcd_puts
                0x0001d0ec       0x40 common/built-in.o
                0x0001d0ec                lcd_puts
 .text.do_lcd_puts
                0x0001d12c       0x24 common/built-in.o
 .text.lcd_dt_simplefb_configure_node
                0x0001d150       0x50 common/built-in.o
 .text.lcd_dt_simplefb_add_node
                0x0001d1a0       0x98 common/built-in.o
                0x0001d1a0                lcd_dt_simplefb_add_node
 .text.menu_display_statusline
                0x0001d238        0x4 common/built-in.o
                0x0001d238                menu_display_statusline
 .text.menu_default_set
                0x0001d23c       0x88 common/built-in.o
                0x0001d23c                menu_default_set
 .text.menu_get_choice
                0x0001d2c4      0x1ec common/built-in.o
                0x0001d2c4                menu_get_choice
 .text.menu_item_add
                0x0001d4b0       0xe4 common/built-in.o
                0x0001d4b0                menu_item_add
 .text.menu_create
                0x0001d594       0x90 common/built-in.o
                0x0001d594                menu_create
 .text.menu_destroy
                0x0001d624       0x70 common/built-in.o
                0x0001d624                menu_destroy
 .text.usb_kbd_translate.part.0
                0x0001d694      0x130 common/built-in.o
 .text.usb_kbd_irq_worker
                0x0001d7c4      0x1a8 common/built-in.o
 .text.usb_kbd_getc
                0x0001d96c       0x74 common/built-in.o
 .text.usb_kbd_irq
                0x0001d9e0       0x24 common/built-in.o
 .text.usb_kbd_testc
                0x0001da04       0x94 common/built-in.o
 .text.drv_usb_kbd_init
                0x0001da98      0x234 common/built-in.o
                0x0001da98                drv_usb_kbd_init
 .text.usb_kbd_deregister
                0x0001dccc       0x7c common/built-in.o
                0x0001dccc                usb_kbd_deregister
 .text.env_get_char_spec
                0x0001dd48        0xc common/built-in.o
                0x0001dd48                env_get_char_spec
 .text.env_get_addr
                0x0001dd54       0x20 common/built-in.o
                0x0001dd54                env_get_addr
 .text.env_get_char_memory
                0x0001dd74       0x10 common/built-in.o
                0x0001dd74                env_get_char_memory
 .text.env_get_char
                0x0001dd84       0x30 common/built-in.o
                0x0001dd84                env_get_char
 .text.getenv_yesno
                0x0001ddb4       0x50 common/built-in.o
                0x0001ddb4                getenv_yesno
 .text.getenv_default
                0x0001de04       0x30 common/built-in.o
                0x0001de04                getenv_default
 .text.set_default_env
                0x0001de34       0xc0 common/built-in.o
                0x0001de34                set_default_env
 .text.set_default_vars
                0x0001def4       0x40 common/built-in.o
                0x0001def4                set_default_vars
 .text.env_import
                0x0001df34       0xe0 common/built-in.o
                0x0001df34                env_import
 .text.env_export
                0x0001e014       0xa4 common/built-in.o
                0x0001e014                env_export
 .text.env_relocate
                0x0001e0b8       0x30 common/built-in.o
                0x0001e0b8                env_relocate
 .text.env_complete
                0x0001e0e8       0xd4 common/built-in.o
                0x0001e0e8                env_complete
 .text.console_tstc
                0x0001e1bc       0x90 common/built-in.o
 .text.console_putc
                0x0001e24c       0x54 common/built-in.o
 .text.console_puts
                0x0001e2a0       0x54 common/built-in.o
 .text.on_console
                0x0001e2f4       0xc8 common/built-in.o
 .text.serial_printf
                0x0001e3bc       0x4c common/built-in.o
                0x0001e3bc                serial_printf
 .text.puts     0x0001e408       0x28 common/built-in.o
                0x0001e408                puts
 .text.tstc     0x0001e430       0x24 common/built-in.o
                0x0001e430                tstc
 .text.putc     0x0001e454       0x28 common/built-in.o
                0x0001e454                putc
 .text.fgetc    0x0001e47c       0x54 common/built-in.o
                0x0001e47c                fgetc
 .text.getc     0x0001e4d0       0x24 common/built-in.o
                0x0001e4d0                getc
 .text.ctrlc    0x0001e4f4       0x58 common/built-in.o
                0x0001e4f4                ctrlc
 .text.had_ctrlc
                0x0001e54c       0x10 common/built-in.o
                0x0001e54c                had_ctrlc
 .text.clear_ctrlc
                0x0001e55c       0x14 common/built-in.o
                0x0001e55c                clear_ctrlc
 .text.search_device
                0x0001e570       0x30 common/built-in.o
                0x0001e570                search_device
 .text.console_assign
                0x0001e5a0       0xdc common/built-in.o
                0x0001e5a0                console_assign
 .text.console_init_f
                0x0001e67c       0x10 common/built-in.o
                0x0001e67c                console_init_f
 .text.stdio_print_current_devices
                0x0001e68c       0xb8 common/built-in.o
                0x0001e68c                stdio_print_current_devices
 .text.console_init_r
                0x0001e744      0x18c common/built-in.o
                0x0001e744                console_init_r
 .text.sbrk     0x0001e8d0       0x70 common/built-in.o
                0x0001e8d0                sbrk
 .text.mem_malloc_init
                0x0001e940       0x34 common/built-in.o
                0x0001e940                mem_malloc_init
 .text.malloc_trim
                0x0001e974       0xcc common/built-in.o
                0x0001e974                malloc_trim
 .text.free     0x0001ea40      0x250 common/built-in.o
                0x0001ea40                free
 .text.malloc   0x0001ec90      0x624 common/built-in.o
                0x0001ec90                malloc
 .text.calloc   0x0001f2b4      0x13c common/built-in.o
                0x0001f2b4                calloc
 .text.memalign
                0x0001f3f0      0x148 common/built-in.o
                0x0001f3f0                memalign
 .text.realloc  0x0001f538      0x42c common/built-in.o
                0x0001f538                realloc
 .text.initf_malloc
                0x0001f964       0x18 common/built-in.o
                0x0001f964                initf_malloc
 .text.malloc_simple
                0x0001f97c       0x30 common/built-in.o
                0x0001f97c                malloc_simple
 .text.on_loadaddr
                0x0001f9ac       0x38 common/built-in.o
 .text.image_check_hcrc
                0x0001f9e4       0x60 common/built-in.o
                0x0001f9e4                image_check_hcrc
 .text.image_check_dcrc
                0x0001fa44       0x60 common/built-in.o
                0x0001fa44                image_check_dcrc
 .text.image_multi_count
                0x0001faa4       0x20 common/built-in.o
                0x0001faa4                image_multi_count
 .text.image_multi_getimg
                0x0001fac4       0xa8 common/built-in.o
                0x0001fac4                image_multi_getimg
 .text.getenv_bootm_low
                0x0001fb6c       0x28 common/built-in.o
                0x0001fb6c                getenv_bootm_low
 .text.getenv_bootm_size
                0x0001fb94       0x6c common/built-in.o
                0x0001fb94                getenv_bootm_size
 .text.getenv_bootm_mapsize
                0x0001fc00       0x30 common/built-in.o
                0x0001fc00                getenv_bootm_mapsize
 .text.memmove_wd
                0x0001fc30        0xc common/built-in.o
                0x0001fc30                memmove_wd
 .text.genimg_print_size
                0x0001fc3c       0x30 common/built-in.o
                0x0001fc3c                genimg_print_size
 .text.get_table_entry
                0x0001fc6c       0x24 common/built-in.o
                0x0001fc6c                get_table_entry
 .text.get_table_entry_name
                0x0001fc90       0x20 common/built-in.o
                0x0001fc90                get_table_entry_name
 .text.genimg_get_os_name
                0x0001fcb0       0x18 common/built-in.o
                0x0001fcb0                genimg_get_os_name
 .text.genimg_get_arch_name
                0x0001fcc8       0x18 common/built-in.o
                0x0001fcc8                genimg_get_arch_name
 .text.genimg_get_type_name
                0x0001fce0       0x18 common/built-in.o
                0x0001fce0                genimg_get_type_name
 .text.genimg_get_comp_name
                0x0001fcf8       0x18 common/built-in.o
                0x0001fcf8                genimg_get_comp_name
 .text.image_print_contents
                0x0001fd10      0x1ac common/built-in.o
                0x0001fd10                image_print_contents
 .text.genimg_get_kernel_addr_fit
                0x0001febc       0x24 common/built-in.o
                0x0001febc                genimg_get_kernel_addr_fit
 .text.genimg_get_kernel_addr
                0x0001fee0       0x20 common/built-in.o
                0x0001fee0                genimg_get_kernel_addr
 .text.genimg_get_format
                0x0001ff00       0x4c common/built-in.o
                0x0001ff00                genimg_get_format
 .text.genimg_get_image
                0x0001ff4c        0x4 common/built-in.o
                0x0001ff4c                genimg_get_image
 .text.genimg_has_config
                0x0001ff50        0x8 common/built-in.o
                0x0001ff50                genimg_has_config
 .text.boot_get_ramdisk
                0x0001ff58      0x298 common/built-in.o
                0x0001ff58                boot_get_ramdisk
 .text.boot_ramdisk_high
                0x000201f0      0x134 common/built-in.o
                0x000201f0                boot_ramdisk_high
 .text.boot_get_setup
                0x00020324        0x8 common/built-in.o
                0x00020324                boot_get_setup
 .text.image_setup_linux
                0x0002032c       0x88 common/built-in.o
                0x0002032c                image_setup_linux
 .text.fdt_error
                0x000203b4       0x2c common/built-in.o
 .text.boot_fdt_add_mem_rsv_regions
                0x000203e0       0x90 common/built-in.o
                0x000203e0                boot_fdt_add_mem_rsv_regions
 .text.boot_relocate_fdt
                0x00020470      0x1a8 common/built-in.o
                0x00020470                boot_relocate_fdt
 .text.boot_get_fdt
                0x00020618      0x30c common/built-in.o
                0x00020618                boot_get_fdt
 .text.ft_verify_fdt
                0x00020924        0x8 common/built-in.o
                0x00020924                ft_verify_fdt
 .text.image_setup_libfdt
                0x0002092c      0x168 common/built-in.o
                0x0002092c                image_setup_libfdt
 .text.get_effective_memsize
                0x00020a94        0x8 common/built-in.o
                0x00020a94                get_effective_memsize
 .text.nulldev_putc
                0x00020a9c        0x4 common/built-in.o
 .text.nulldev_puts
                0x00020aa0        0x4 common/built-in.o
 .text.nulldev_input
                0x00020aa4        0x8 common/built-in.o
 .text.stdio_serial_tstc
                0x00020aac        0x4 common/built-in.o
 .text.stdio_serial_getc
                0x00020ab0        0x4 common/built-in.o
 .text.stdio_serial_puts
                0x00020ab4        0x8 common/built-in.o
 .text.stdio_serial_putc
                0x00020abc        0x8 common/built-in.o
 .text.stdio_get_list
                0x00020ac4        0xc common/built-in.o
                0x00020ac4                stdio_get_list
 .text.stdio_get_by_name
                0x00020ad0       0x50 common/built-in.o
                0x00020ad0                stdio_get_by_name
 .text.stdio_clone
                0x00020b20       0x3c common/built-in.o
                0x00020b20                stdio_clone
 .text.stdio_register_dev
                0x00020b5c       0x50 common/built-in.o
                0x00020b5c                stdio_register_dev
 .text.stdio_register
                0x00020bac        0x8 common/built-in.o
                0x00020bac                stdio_register
 .text.stdio_deregister_dev
                0x00020bb4       0xf8 common/built-in.o
                0x00020bb4                stdio_deregister_dev
 .text.stdio_init_tables
                0x00020cac       0x1c common/built-in.o
                0x00020cac                stdio_init_tables
 .text.stdio_add_devices
                0x00020cc8       0xd4 common/built-in.o
                0x00020cc8                stdio_add_devices
 .text.cli_simple_process_macros
                0x00020d9c      0x218 common/built-in.o
                0x00020d9c                cli_simple_process_macros
 .text.run_command
                0x00020fb4       0x10 common/built-in.o
                0x00020fb4                run_command
 .text.run_command_list
                0x00020fc4       0x84 common/built-in.o
                0x00020fc4                run_command_list
 .text.do_run   0x00021048       0x78 common/built-in.o
                0x00021048                do_run
 .text.cli_loop
                0x000210c0        0xc common/built-in.o
                0x000210c0                cli_loop
 .text.cli_init
                0x000210cc        0x4 common/built-in.o
                0x000210cc                cli_init
 .text.delete_char.part.0
                0x000210d0       0xd4 common/built-in.o
 .text.cread_add_char
                0x000211a4       0xec common/built-in.o
 .text.cli_readline_into_buffer
                0x00021290      0x9d0 common/built-in.o
                0x00021290                cli_readline_into_buffer
 .text.cli_readline
                0x00021c60       0x14 common/built-in.o
                0x00021c60                cli_readline
 .text.find_cmd_tbl
                0x00021c74       0xa4 common/built-in.o
                0x00021c74                find_cmd_tbl
 .text.find_cmd
                0x00021d18       0x28 common/built-in.o
                0x00021d18                find_cmd
 .text.cmd_usage
                0x00021d40       0x5c common/built-in.o
                0x00021d40                cmd_usage
 .text._do_help
                0x00021d9c      0x184 common/built-in.o
                0x00021d9c                _do_help
 .text.var_complete
                0x00021f20       0x88 common/built-in.o
                0x00021f20                var_complete
 .text.cmd_auto_complete
                0x00021fa8      0x4c8 common/built-in.o
                0x00021fa8                cmd_auto_complete
 .text.cmd_get_data_size
                0x00022470       0x50 common/built-in.o
                0x00022470                cmd_get_data_size
 .text.cmd_process
                0x000224c0       0xec common/built-in.o
                0x000224c0                cmd_process
 .text.cmd_process_error
                0x000225ac       0x30 common/built-in.o
                0x000225ac                cmd_process_error
 .text.hex1_bin
                0x000225dc       0x40 common/built-in.o
 .text.hex2_bin
                0x0002261c       0x38 common/built-in.o
 .text.srec_decode
                0x00022654      0x264 common/built-in.o
                0x00022654                srec_decode
 .text.CYGACC_COMM_IF_GETC_TIMEOUT.isra.1
                0x000228b8       0x4c common/built-in.o
 .text.xyzModem_flush
                0x00022904       0x18 common/built-in.o
 .text.xyzModem_get_hdr
                0x0002291c      0x258 common/built-in.o
 .text.xyzModem_stream_open
                0x00022b74      0x254 common/built-in.o
                0x00022b74                xyzModem_stream_open
 .text.xyzModem_stream_read
                0x00022dc8      0x254 common/built-in.o
                0x00022dc8                xyzModem_stream_read
 .text.xyzModem_stream_close
                0x0002301c       0x50 common/built-in.o
                0x0002301c                xyzModem_stream_close
 .text.xyzModem_stream_terminate
                0x0002306c       0x94 common/built-in.o
                0x0002306c                xyzModem_stream_terminate
 .text.xyzModem_error
                0x00023100       0x20 common/built-in.o
                0x00023100                xyzModem_error
 .text.get_dev_hwpart
                0x00023120       0xac disk/built-in.o
 .text.blk_get_dev
                0x000231cc        0x8 disk/built-in.o
                0x000231cc                blk_get_dev
 .text.dev_print
                0x000231d4      0x224 disk/built-in.o
                0x000231d4                dev_print
 .text.part_init
                0x000233f8       0x60 disk/built-in.o
                0x000233f8                part_init
 .text.part_print
                0x00023458      0x140 disk/built-in.o
                0x00023458                part_print
 .text.part_get_info
                0x00023598       0x84 disk/built-in.o
                0x00023598                part_get_info
 .text.blk_get_device_by_str
                0x0002361c      0x128 disk/built-in.o
                0x0002361c                blk_get_device_by_str
 .text.blk_get_device_part_str
                0x00023744      0x3fc disk/built-in.o
                0x00023744                blk_get_device_part_str
 .text.test_block_type
                0x00023b40       0x7c disk/built-in.o
 .text.part_test_dos
                0x00023bbc       0x60 disk/built-in.o
 .text.print_partition_extended
                0x00023c1c      0x264 disk/built-in.o
 .text.part_print_dos
                0x00023e80       0x30 disk/built-in.o
                0x00023e80                part_print_dos
 .text.part_get_info_extended
                0x00023eb0      0x33c disk/built-in.o
 .text.part_get_info_dos
                0x000241ec       0x24 disk/built-in.o
                0x000241ec                part_get_info_dos
 .text.iso_dread
                0x00024210       0x34 disk/built-in.o
                0x00024210                iso_dread
 .text.part_get_info_iso_verb
                0x00024244      0x428 disk/built-in.o
                0x00024244                part_get_info_iso_verb
 .text.part_test_iso
                0x0002466c       0x20 disk/built-in.o
 .text.part_print_iso
                0x0002468c       0x98 disk/built-in.o
 .text.part_get_info_iso
                0x00024724        0x8 disk/built-in.o
 .text.print_efiname
                0x0002472c       0x58 disk/built-in.o
 .text.part_test_efi
                0x00024784       0xe4 disk/built-in.o
 .text.validate_gpt_entries
                0x00024868       0x98 disk/built-in.o
 .text.validate_gpt_header
                0x00024900      0x228 disk/built-in.o
 .text.is_gpt_valid
                0x00024b28      0x1c4 disk/built-in.o
 .text.is_pte_valid
                0x00024cec       0x58 disk/built-in.o
 .text.part_get_info_efi
                0x00024d44      0x1fc disk/built-in.o
                0x00024d44                part_get_info_efi
 .text.part_print_efi
                0x00024f40      0x27c disk/built-in.o
                0x00024f40                part_print_efi
 .text.alloc_priv
                0x000251bc       0x4c drivers/built-in.o
 .text.device_bind
                0x00025208      0x330 drivers/built-in.o
                0x00025208                device_bind
 .text.device_bind_by_name
                0x00025538       0x60 drivers/built-in.o
                0x00025538                device_bind_by_name
 .text.device_probe
                0x00025598      0x23c drivers/built-in.o
                0x00025598                device_probe
 .text.dev_get_platdata
                0x000257d4       0x30 drivers/built-in.o
                0x000257d4                dev_get_platdata
 .text.dev_get_priv
                0x00025804       0x30 drivers/built-in.o
                0x00025804                dev_get_priv
 .text.dev_get_uclass_priv
                0x00025834       0x30 drivers/built-in.o
                0x00025834                dev_get_uclass_priv
 .text.lists_driver_lookup_name
                0x00025864       0x54 drivers/built-in.o
                0x00025864                lists_driver_lookup_name
 .text.lists_uclass_lookup
                0x000258b8       0x48 drivers/built-in.o
                0x000258b8                lists_uclass_lookup
 .text.lists_bind_drivers
                0x00025900       0x90 drivers/built-in.o
                0x00025900                lists_bind_drivers
 .text.dm_root  0x00025990       0x2c drivers/built-in.o
                0x00025990                dm_root
 .text.dm_init  0x000259bc       0x58 drivers/built-in.o
                0x000259bc                dm_init
 .text.dm_scan_platdata
                0x00025a14       0x2c drivers/built-in.o
                0x00025a14                dm_scan_platdata
 .text.dm_scan_other
                0x00025a40        0x8 drivers/built-in.o
                0x00025a40                dm_scan_other
 .text.dm_init_and_scan
                0x00025a48       0x30 drivers/built-in.o
                0x00025a48                dm_init_and_scan
 .text.uclass_find
                0x00025a78       0x50 drivers/built-in.o
                0x00025a78                uclass_find
 .text.uclass_get
                0x00025ac8      0x128 drivers/built-in.o
                0x00025ac8                uclass_get
 .text.uclass_find_device
                0x00025bf0       0x70 drivers/built-in.o
                0x00025bf0                uclass_find_device
 .text.uclass_find_first_device
                0x00025c60       0x38 drivers/built-in.o
                0x00025c60                uclass_find_first_device
 .text.uclass_find_next_device
                0x00025c98       0x2c drivers/built-in.o
                0x00025c98                uclass_find_next_device
 .text.uclass_find_device_by_seq
                0x00025cc4       0x78 drivers/built-in.o
                0x00025cc4                uclass_find_device_by_seq
 .text.uclass_get_device_tail
                0x00025d3c       0x28 drivers/built-in.o
                0x00025d3c                uclass_get_device_tail
 .text.uclass_get_device
                0x00025d64       0x2c drivers/built-in.o
                0x00025d64                uclass_get_device
 .text.uclass_get_device_by_seq
                0x00025d90       0x54 drivers/built-in.o
                0x00025d90                uclass_get_device_by_seq
 .text.uclass_first_device
                0x00025de4       0x34 drivers/built-in.o
                0x00025de4                uclass_first_device
 .text.uclass_next_device
                0x00025e18       0x3c drivers/built-in.o
                0x00025e18                uclass_next_device
 .text.uclass_bind_device
                0x00025e54       0x7c drivers/built-in.o
                0x00025e54                uclass_bind_device
 .text.uclass_unbind_device
                0x00025ed0       0x4c drivers/built-in.o
                0x00025ed0                uclass_unbind_device
 .text.uclass_resolve_seq
                0x00025f1c       0xb0 drivers/built-in.o
                0x00025f1c                uclass_resolve_seq
 .text.uclass_pre_probe_device
                0x00025fcc       0x64 drivers/built-in.o
                0x00025fcc                uclass_pre_probe_device
 .text.uclass_post_probe_device
                0x00026030       0x28 drivers/built-in.o
                0x00026030                uclass_post_probe_device
 .text.uclass_pre_remove_device
                0x00026058       0x28 drivers/built-in.o
                0x00026058                uclass_pre_remove_device
 .text.dm_warn  0x00026080       0x24 drivers/built-in.o
                0x00026080                dm_warn
 .text.device_free
                0x000260a4       0x90 drivers/built-in.o
                0x000260a4                device_free
 .text.device_remove
                0x00026134      0x144 drivers/built-in.o
                0x00026134                device_remove
 .text.show_devices
                0x00026278       0xfc drivers/built-in.o
 .text.dm_dump_all
                0x00026374       0x3c drivers/built-in.o
                0x00026374                dm_dump_all
 .text.dm_dump_uclass
                0x000263b0       0xd8 drivers/built-in.o
                0x000263b0                dm_dump_uclass
 .text.lcd_ctrl_init
                0x00026488      0x224 drivers/built-in.o
                0x00026488                lcd_ctrl_init
 .text.lcd_enable
                0x000266ac        0x4 drivers/built-in.o
                0x000266ac                lcd_enable
 .text.lcd_get_size
                0x000266b0       0x24 drivers/built-in.o
                0x000266b0                lcd_get_size
 .text.gpio_renumber
                0x000266d4       0x7c drivers/gpio/built-in.o
 .text.gpio_pre_remove
                0x00026750       0x50 drivers/gpio/built-in.o
 .text.gpio_post_probe
                0x000267a0       0x38 drivers/gpio/built-in.o
 .text.gpio_to_device
                0x000267d8       0x80 drivers/gpio/built-in.o
 .text.check_reserved
                0x00026858       0x78 drivers/gpio/built-in.o
 .text.dm_gpio_lookup_name
                0x000268d0      0x11c drivers/gpio/built-in.o
                0x000268d0                dm_gpio_lookup_name
 .text.gpio_lookup_name
                0x000269ec       0x70 drivers/gpio/built-in.o
                0x000269ec                gpio_lookup_name
 .text.dm_gpio_request
                0x00026a5c       0x9c drivers/gpio/built-in.o
                0x00026a5c                dm_gpio_request
 .text.gpio_request
                0x00026af8       0x2c drivers/gpio/built-in.o
                0x00026af8                gpio_request
 .text._dm_gpio_free
                0x00026b24       0x74 drivers/gpio/built-in.o
                0x00026b24                _dm_gpio_free
 .text.gpio_free
                0x00026b98       0x28 drivers/gpio/built-in.o
                0x00026b98                gpio_free
 .text.gpio_direction_input
                0x00026bc0       0x4c drivers/gpio/built-in.o
                0x00026bc0                gpio_direction_input
 .text.gpio_direction_output
                0x00026c0c       0x54 drivers/gpio/built-in.o
                0x00026c0c                gpio_direction_output
 .text.dm_gpio_get_value
                0x00026c60       0x4c drivers/gpio/built-in.o
                0x00026c60                dm_gpio_get_value
 .text.dm_gpio_set_value
                0x00026cac       0x58 drivers/gpio/built-in.o
                0x00026cac                dm_gpio_set_value
 .text.gpio_get_value
                0x00026d04       0x24 drivers/gpio/built-in.o
                0x00026d04                gpio_get_value
 .text.gpio_set_value
                0x00026d28       0x2c drivers/gpio/built-in.o
                0x00026d28                gpio_set_value
 .text.gpio_get_bank_info
                0x00026d54       0x1c drivers/gpio/built-in.o
                0x00026d54                gpio_get_bank_info
 .text.get_function
                0x00026d70       0xb4 drivers/gpio/built-in.o
                0x00026d70                get_function
 .text.gpio_get_function
                0x00026e24        0xc drivers/gpio/built-in.o
                0x00026e24                gpio_get_function
 .text.gpio_get_raw_function
                0x00026e30        0xc drivers/gpio/built-in.o
                0x00026e30                gpio_get_raw_function
 .text.gpio_get_status
                0x00026e3c      0x114 drivers/gpio/built-in.o
                0x00026e3c                gpio_get_status
 .text.bcm2835_gpio_get_function
                0x00026f50       0x44 drivers/gpio/built-in.o
 .text.bcm2835_gpio_set_value
                0x00026f94       0x44 drivers/gpio/built-in.o
 .text.bcm2835_gpio_get_value
                0x00026fd8       0x34 drivers/gpio/built-in.o
 .text.bcm2835_gpio_direction_input
                0x0002700c       0x50 drivers/gpio/built-in.o
 .text.bcm2835_gpio_direction_output
                0x0002705c       0x68 drivers/gpio/built-in.o
 .text.bcm2835_gpio_probe
                0x000270c4       0x48 drivers/gpio/built-in.o
 .text.bcm2835_sdhci_readl
                0x0002710c        0xc drivers/mmc/built-in.o
 .text.bcm2835_sdhci_readw
                0x00027118       0x24 drivers/mmc/built-in.o
 .text.bcm2835_sdhci_readb
                0x0002713c       0x20 drivers/mmc/built-in.o
 .text.bcm2835_sdhci_writel
                0x0002715c       0x3c drivers/mmc/built-in.o
 .text.bcm2835_sdhci_writew
                0x00027198       0x80 drivers/mmc/built-in.o
 .text.bcm2835_sdhci_writeb
                0x00027218       0x54 drivers/mmc/built-in.o
 .text.bcm2835_sdhci_init
                0x0002726c       0x98 drivers/mmc/built-in.o
                0x0002726c                bcm2835_sdhci_init
 .text.mmc_set_ios
                0x00027304       0x20 drivers/mmc/built-in.o
 .text.mmc_set_capacity
                0x00027324       0xb8 drivers/mmc/built-in.o
 .text.board_mmc_getwp
                0x000273dc        0x8 drivers/mmc/built-in.o
                0x000273dc                board_mmc_getwp
 .text.mmc_getwp
                0x000273e4       0x3c drivers/mmc/built-in.o
                0x000273e4                mmc_getwp
 .text.board_mmc_getcd
                0x00027420        0x8 drivers/mmc/built-in.o
                0x00027420                board_mmc_getcd
 .text.mmc_send_cmd
                0x00027428       0x18 drivers/mmc/built-in.o
                0x00027428                mmc_send_cmd
 .text.mmc_send_op_cond_iter
                0x00027440       0x78 drivers/mmc/built-in.o
 .text.mmc_send_ext_csd
                0x000274b8       0x4c drivers/mmc/built-in.o
 .text.mmc_go_idle
                0x00027504       0x4c drivers/mmc/built-in.o
 .text.mmc_send_status
                0x00027550       0xdc drivers/mmc/built-in.o
                0x00027550                mmc_send_status
 .text.mmc_switch.isra.1
                0x0002762c       0x54 drivers/mmc/built-in.o
 .text.mmc_set_blocklen
                0x00027680       0x40 drivers/mmc/built-in.o
                0x00027680                mmc_set_blocklen
 .text.find_mmc_device
                0x000276c0       0x4c drivers/mmc/built-in.o
                0x000276c0                find_mmc_device
 .text.mmc_switch_part
                0x0002770c       0x5c drivers/mmc/built-in.o
                0x0002770c                mmc_switch_part
 .text.mmc_select_hwpart
                0x00027768       0x64 drivers/mmc/built-in.o
                0x00027768                mmc_select_hwpart
 .text.mmc_bread
                0x000277cc      0x16c drivers/mmc/built-in.o
 .text.mmc_hwpart_config
                0x00027938      0x45c drivers/mmc/built-in.o
                0x00027938                mmc_hwpart_config
 .text.mmc_getcd
                0x00027d94       0x3c drivers/mmc/built-in.o
                0x00027d94                mmc_getcd
 .text.mmc_set_clock
                0x00027dd0       0x24 drivers/mmc/built-in.o
                0x00027dd0                mmc_set_clock
 .text.mmc_startup
                0x00027df4      0xe14 drivers/mmc/built-in.o
 .text.mmc_create
                0x00028c08       0xf8 drivers/mmc/built-in.o
                0x00028c08                mmc_create
 .text.board_mmc_power_init
                0x00028d00        0x4 drivers/mmc/built-in.o
                0x00028d00                board_mmc_power_init
 .text.mmc_start_init
                0x00028d04      0x27c drivers/mmc/built-in.o
                0x00028d04                mmc_start_init
 .text.mmc_init
                0x00028f80       0xf8 drivers/mmc/built-in.o
                0x00028f80                mmc_init
 .text.mmc_get_dev
                0x00029078       0x2c drivers/mmc/built-in.o
                0x00029078                mmc_get_dev
 .text.mmc_set_dsr
                0x000290a4        0xc drivers/mmc/built-in.o
                0x000290a4                mmc_set_dsr
 .text.cpu_mmc_init
                0x000290b0        0x8 drivers/mmc/built-in.o
                0x000290b0                cpu_mmc_init
 .text.print_mmc_devices
                0x000290b8       0xc0 drivers/mmc/built-in.o
                0x000290b8                print_mmc_devices
 .text.get_mmc_num
                0x00029178       0x10 drivers/mmc/built-in.o
                0x00029178                get_mmc_num
 .text.mmc_initialize
                0x00029188       0x90 drivers/mmc/built-in.o
                0x00029188                mmc_initialize
 .text.sdhci_init
                0x00029218      0x28c drivers/mmc/built-in.o
 .text.sdhci_set_ios
                0x000294a4      0x334 drivers/mmc/built-in.o
 .text.sdhci_reset
                0x000297d8       0x9c drivers/mmc/built-in.o
 .text.sdhci_send_command
                0x00029874      0x6e4 drivers/mmc/built-in.o
 .text.add_sdhci
                0x00029f58      0x1a4 drivers/mmc/built-in.o
                0x00029f58                add_sdhci
 .text.mmc_berase
                0x0002a0fc      0x1b4 drivers/mmc/built-in.o
                0x0002a0fc                mmc_berase
 .text.mmc_bwrite
                0x0002a2b0      0x188 drivers/mmc/built-in.o
                0x0002a2b0                mmc_bwrite
 .text._serial_putc
                0x0002a438       0x40 drivers/serial/built-in.o
 .text._serial_getc
                0x0002a478       0x2c drivers/serial/built-in.o
 .text._serial_tstc
                0x0002a4a4       0x2c drivers/serial/built-in.o
 .text.serial_stub_putc
                0x0002a4d0        0x8 drivers/serial/built-in.o
 .text.serial_stub_getc
                0x0002a4d8        0x8 drivers/serial/built-in.o
                0x0002a4d8                serial_stub_getc
 .text.serial_stub_tstc
                0x0002a4e0        0x8 drivers/serial/built-in.o
                0x0002a4e0                serial_stub_tstc
 .text.serial_pre_remove
                0x0002a4e8       0x24 drivers/serial/built-in.o
 .text.serial_post_probe
                0x0002a50c       0xc4 drivers/serial/built-in.o
 .text.serial_stub_puts
                0x0002a5d0       0x28 drivers/serial/built-in.o
                0x0002a5d0                serial_stub_puts
 .text.serial_init
                0x0002a5f8       0x80 drivers/serial/built-in.o
                0x0002a5f8                serial_init
 .text.serial_initialize
                0x0002a678        0x4 drivers/serial/built-in.o
                0x0002a678                serial_initialize
 .text.serial_putc
                0x0002a67c       0x18 drivers/serial/built-in.o
                0x0002a67c                serial_putc
 .text.serial_puts
                0x0002a694       0x34 drivers/serial/built-in.o
                0x0002a694                serial_puts
 .text.serial_getc
                0x0002a6c8       0x14 drivers/serial/built-in.o
                0x0002a6c8                serial_getc
 .text.serial_tstc
                0x0002a6dc       0x14 drivers/serial/built-in.o
                0x0002a6dc                serial_tstc
 .text.serial_setbrg
                0x0002a6f0       0x38 drivers/serial/built-in.o
                0x0002a6f0                serial_setbrg
 .text.on_baudrate
                0x0002a728       0xf4 drivers/serial/built-in.o
 .text.serial_stdio_init
                0x0002a81c        0x4 drivers/serial/built-in.o
                0x0002a81c                serial_stdio_init
 .text.pl01x_serial_pending
                0x0002a820       0x3c drivers/serial/built-in.o
 .text.pl01x_serial_putc
                0x0002a85c       0x2c drivers/serial/built-in.o
 .text.pl01x_serial_getc
                0x0002a888       0x38 drivers/serial/built-in.o
 .text.pl01x_serial_setbrg
                0x0002a8c0      0x110 drivers/serial/built-in.o
 .text.pl01x_serial_probe
                0x0002a9d0       0x68 drivers/serial/built-in.o
 .text.usb_host_eth_scan
                0x0002aa38      0x1d8 drivers/usb/eth/built-in.o
                0x0002aa38                usb_host_eth_scan
 .text.smsc95xx_halt
                0x0002ac10        0x4 drivers/usb/eth/built-in.o
 .text.smsc95xx_write_reg
                0x0002ac14       0x6c drivers/usb/eth/built-in.o
 .text.smsc95xx_write_hwaddr_common
                0x0002ac80       0x68 drivers/usb/eth/built-in.o
 .text.smsc95xx_write_hwaddr
                0x0002ace8       0x18 drivers/usb/eth/built-in.o
 .text.smsc95xx_read_reg
                0x0002ad00       0x78 drivers/usb/eth/built-in.o
 .text.smsc95xx_send_common
                0x0002ad78       0xbc drivers/usb/eth/built-in.o
 .text.smsc95xx_send
                0x0002ae34        0x8 drivers/usb/eth/built-in.o
 .text.smsc95xx_recv
                0x0002ae3c      0x120 drivers/usb/eth/built-in.o
 .text.unlikely.smsc95xx_phy_wait_not_busy
                0x0002af5c       0x50 drivers/usb/eth/built-in.o
 .text.unlikely.smsc95xx_mdio_read
                0x0002afac       0x60 drivers/usb/eth/built-in.o
 .text.unlikely.smsc95xx_mdio_write
                0x0002b00c       0x54 drivers/usb/eth/built-in.o
 .text.smsc95xx_init
                0x0002b060      0x5e0 drivers/usb/eth/built-in.o
 .text.smsc95xx_eth_before_probe
                0x0002b640       0x14 drivers/usb/eth/built-in.o
                0x0002b640                smsc95xx_eth_before_probe
 .text.smsc95xx_eth_probe
                0x0002b654      0x15c drivers/usb/eth/built-in.o
                0x0002b654                smsc95xx_eth_probe
 .text.smsc95xx_eth_get_info
                0x0002b7b0       0x8c drivers/usb/eth/built-in.o
                0x0002b7b0                smsc95xx_eth_get_info
 .text.dwc_otg_core_reset
                0x0002b83c       0xb0 drivers/usb/host/built-in.o
 .text.wait_for_chhltd
                0x0002b8ec       0x90 drivers/usb/host/built-in.o
                0x0002b8ec                wait_for_chhltd
 .text.chunk_msg
                0x0002b97c      0x3f4 drivers/usb/host/built-in.o
                0x0002b97c                chunk_msg
 .text._submit_bulk_msg
                0x0002bd70       0x7c drivers/usb/host/built-in.o
                0x0002bd70                _submit_bulk_msg
 .text._submit_int_msg
                0x0002bdec       0x84 drivers/usb/host/built-in.o
                0x0002bdec                _submit_int_msg
 .text.submit_control_msg
                0x0002be70      0x56c drivers/usb/host/built-in.o
                0x0002be70                submit_control_msg
 .text.submit_bulk_msg
                0x0002c3dc       0x30 drivers/usb/host/built-in.o
                0x0002c3dc                submit_bulk_msg
 .text.submit_int_msg
                0x0002c40c       0x38 drivers/usb/host/built-in.o
                0x0002c40c                submit_int_msg
 .text.usb_lowlevel_init
                0x0002c444      0x3c0 drivers/usb/host/built-in.o
                0x0002c444                usb_lowlevel_init
 .text.usb_lowlevel_stop
                0x0002c804       0x28 drivers/usb/host/built-in.o
                0x0002c804                usb_lowlevel_stop
 .text.fs_probe_unsupported
                0x0002c82c       0x18 fs/built-in.o
 .text.fs_ls_unsupported
                0x0002c844        0x8 fs/built-in.o
 .text.fs_exists_unsupported
                0x0002c84c        0x8 fs/built-in.o
 .text.fs_size_unsupported
                0x0002c854        0x8 fs/built-in.o
 .text.fs_read_unsupported
                0x0002c85c        0x8 fs/built-in.o
 .text.fs_write_unsupported
                0x0002c864        0x8 fs/built-in.o
 .text.fs_close_unsupported
                0x0002c86c        0x4 fs/built-in.o
 .text.fs_uuid_unsupported
                0x0002c870        0x8 fs/built-in.o
 .text.fs_get_info
                0x0002c878       0x30 fs/built-in.o
 .text.fs_close
                0x0002c8a8       0x28 fs/built-in.o
 .text.fs_set_blk_dev
                0x0002c8d0       0xb4 fs/built-in.o
                0x0002c8d0                fs_set_blk_dev
 .text.fs_ls    0x0002c984       0x3c fs/built-in.o
                0x0002c984                fs_ls
 .text.fs_exists
                0x0002c9c0       0x34 fs/built-in.o
                0x0002c9c0                fs_exists
 .text.fs_size  0x0002c9f4       0x3c fs/built-in.o
                0x0002c9f4                fs_size
 .text.fs_read  0x0002ca30       0xa4 fs/built-in.o
                0x0002ca30                fs_read
 .text.fs_write
                0x0002cad4       0x8c fs/built-in.o
                0x0002cad4                fs_write
 .text.do_size  0x0002cb60       0x60 fs/built-in.o
                0x0002cb60                do_size
 .text.do_load  0x0002cbc0      0x264 fs/built-in.o
                0x0002cbc0                do_load
 .text.do_ls    0x0002ce24       0x6c fs/built-in.o
                0x0002ce24                do_ls
 .text.file_exists
                0x0002ce90       0x2c fs/built-in.o
                0x0002ce90                file_exists
 .text.do_save  0x0002cebc      0x18c fs/built-in.o
                0x0002cebc                do_save
 .text.do_fs_type
                0x0002d048       0x80 fs/built-in.o
                0x0002d048                do_fs_type
 .text.get_fs   0x0002d0c8        0xc fs/built-in.o
                0x0002d0c8                get_fs
 .text.ext4fs_free_node
                0x0002d0d4       0x24 fs/built-in.o
                0x0002d0d4                ext4fs_free_node
 .text.ext4fs_read_file
                0x0002d0f8      0x3e8 fs/built-in.o
                0x0002d0f8                ext4fs_read_file
 .text.ext4fs_ls
                0x0002d4e0       0x78 fs/built-in.o
                0x0002d4e0                ext4fs_ls
 .text.ext4fs_exists
                0x0002d558       0x18 fs/built-in.o
                0x0002d558                ext4fs_exists
 .text.ext4fs_size
                0x0002d570        0x4 fs/built-in.o
                0x0002d570                ext4fs_size
 .text.ext4fs_read
                0x0002d574       0x5c fs/built-in.o
                0x0002d574                ext4fs_read
 .text.ext4fs_probe
                0x0002d5d0       0x30 fs/built-in.o
                0x0002d5d0                ext4fs_probe
 .text.ext4_read_file
                0x0002d600       0x84 fs/built-in.o
                0x0002d600                ext4_read_file
 .text.ext4fs_uuid
                0x0002d684       0x38 fs/built-in.o
                0x0002d684                ext4fs_uuid
 .text.ext4fs_read_inode
                0x0002d6bc      0x134 fs/built-in.o
                0x0002d6bc                ext4fs_read_inode
 .text.read_allocated_block
                0x0002d7f0      0x9a0 fs/built-in.o
                0x0002d7f0                read_allocated_block
 .text.ext4fs_reinit_global
                0x0002e190       0xbc fs/built-in.o
                0x0002e190                ext4fs_reinit_global
 .text.ext4fs_close
                0x0002e24c       0x60 fs/built-in.o
                0x0002e24c                ext4fs_close
 .text.ext4fs_iterate_dir
                0x0002e2ac      0x2cc fs/built-in.o
                0x0002e2ac                ext4fs_iterate_dir
 .text.ext4fs_find_file1
                0x0002e578      0x2b4 fs/built-in.o
 .text.ext4fs_find_file
                0x0002e82c       0x74 fs/built-in.o
                0x0002e82c                ext4fs_find_file
 .text.ext4fs_open
                0x0002e8a0       0xac fs/built-in.o
                0x0002e8a0                ext4fs_open
 .text.ext4fs_mount
                0x0002e94c       0xcc fs/built-in.o
                0x0002e94c                ext4fs_mount
 .text.ext4fs_set_blk_dev
                0x0002ea18       0x70 fs/built-in.o
                0x0002ea18                ext4fs_set_blk_dev
 .text.ext4fs_devread
                0x0002ea88      0x264 fs/built-in.o
                0x0002ea88                ext4fs_devread
 .text.ext4_read_superblock
                0x0002ecec       0x3c fs/built-in.o
                0x0002ecec                ext4_read_superblock
 .text.downcase
                0x0002ed28       0x30 fs/built-in.o
 .text.disk_read
                0x0002ed58       0x64 fs/built-in.o
 .text.dirdelim
                0x0002edbc       0x34 fs/built-in.o
 .text.get_fatent
                0x0002edf0      0x15c fs/built-in.o
 .text.mkcksum  0x0002ef4c       0x54 fs/built-in.o
 .text.disk_write
                0x0002efa0       0x8c fs/built-in.o
 .text.flush_fat_buffer
                0x0002f02c       0x80 fs/built-in.o
 .text.set_fatent_value
                0x0002f0ac      0x104 fs/built-in.o
 .text.get_fatent_value
                0x0002f1b0      0x1d8 fs/built-in.o
 .text.find_empty_cluster
                0x0002f388       0x2c fs/built-in.o
 .text.get_name
                0x0002f3b4       0xac fs/built-in.o
 .text.read_bootsectandvi
                0x0002f460      0x128 fs/built-in.o
 .text.get_cluster
                0x0002f588      0x17c fs/built-in.o
 .text.set_cluster
                0x0002f704      0x184 fs/built-in.o
 .text.set_name
                0x0002f888      0x138 fs/built-in.o
 .text.check_overflow
                0x0002f9c0       0xa8 fs/built-in.o
 .text.slot2str
                0x0002fa68       0xc8 fs/built-in.o
 .text.get_vfatname
                0x0002fb30      0x1d8 fs/built-in.o
 .text.flush_dir_table.constprop.9
                0x0002fd08       0xd8 fs/built-in.o
 .text.do_fat_write
                0x0002fde0      0xd10 fs/built-in.o
 .text.fat_set_blk_dev
                0x00030af0       0xd4 fs/built-in.o
                0x00030af0                fat_set_blk_dev
 .text.do_fat_read_at
                0x00030bc4      0xd7c fs/built-in.o
                0x00030bc4                do_fat_read_at
 .text.do_fat_read
                0x00031940       0x40 fs/built-in.o
                0x00031940                do_fat_read
 .text.file_fat_detectfs
                0x00031980      0x14c fs/built-in.o
                0x00031980                file_fat_detectfs
 .text.file_fat_ls
                0x00031acc       0x2c fs/built-in.o
                0x00031acc                file_fat_ls
 .text.fat_exists
                0x00031af8       0x48 fs/built-in.o
                0x00031af8                fat_exists
 .text.fat_size
                0x00031b40       0x3c fs/built-in.o
                0x00031b40                fat_size
 .text.file_fat_read_at
                0x00031b7c       0x68 fs/built-in.o
                0x00031b7c                file_fat_read_at
 .text.file_fat_read
                0x00031be4       0x3c fs/built-in.o
                0x00031be4                file_fat_read
 .text.fat_read_file
                0x00031c20       0x50 fs/built-in.o
                0x00031c20                fat_read_file
 .text.fat_close
                0x00031c70        0x4 fs/built-in.o
                0x00031c70                fat_close
 .text.file_fat_write
                0x00031c74       0x60 fs/built-in.o
                0x00031c74                file_fat_write
 .text.efi_return_handle
                0x00031cd4        0xc lib/built-in.o
                0x00031cd4                efi_return_handle
 .text.invalidate_icache_all
                0x00031ce0        0x4 lib/built-in.o
                0x00031ce0                invalidate_icache_all
 .text.efi_load_pe
                0x00031ce4      0x2cc lib/built-in.o
                0x00031ce4                efi_load_pe
 .text.efi_search.isra.1.part.2
                0x00031fb0       0x48 lib/built-in.o
 .text.efi_save_gd
                0x00031ff8       0x10 lib/built-in.o
                0x00031ff8                efi_save_gd
 .text.efi_restore_gd
                0x00032008       0x2c lib/built-in.o
                0x00032008                efi_restore_gd
 .text.efi_set_mem
                0x00032034       0x28 lib/built-in.o
 .text.efi_copy_mem
                0x0003205c       0x28 lib/built-in.o
 .text.efi_calculate_crc32
                0x00032084       0x3c lib/built-in.o
 .text.efi_uninstall_multiple_protocol_interfaces
                0x000320c0       0x28 lib/built-in.o
 .text.efi_install_multiple_protocol_interfaces
                0x000320e8       0x28 lib/built-in.o
 .text.efi_locate_protocol
                0x00032110       0x4c lib/built-in.o
 .text.efi_locate_handle_buffer
                0x0003215c       0x1c lib/built-in.o
 .text.efi_protocols_per_handle
                0x00032178       0x1c lib/built-in.o
 .text.efi_open_protocol_information
                0x00032194       0x1c lib/built-in.o
 .text.efi_close_protocol
                0x000321b0       0x1c lib/built-in.o
 .text.efi_open_protocol
                0x000321cc       0xcc lib/built-in.o
 .text.efi_handle_protocol
                0x00032298       0x18 lib/built-in.o
 .text.efi_disconnect_controller
                0x000322b0       0x1c lib/built-in.o
 .text.efi_connect_controller
                0x000322cc       0x1c lib/built-in.o
 .text.efi_set_watchdog_timer
                0x000322e8       0x1c lib/built-in.o
 .text.efi_stall
                0x00032304       0x28 lib/built-in.o
 .text.efi_get_next_monotonic_count
                0x0003232c       0x44 lib/built-in.o
 .text.efi_exit_boot_services
                0x00032370       0x38 lib/built-in.o
 .text.efi_unload_image
                0x000323a8       0x6c lib/built-in.o
 .text.efi_exit
                0x00032414       0x1c lib/built-in.o
 .text.efi_start_image
                0x00032430       0x44 lib/built-in.o
 .text.efi_load_image
                0x00032474       0xc0 lib/built-in.o
 .text.efi_install_configuration_table
                0x00032534       0xac lib/built-in.o
 .text.efi_locate_device_path
                0x000325e0       0x1c lib/built-in.o
 .text.efi_locate_handle
                0x000325fc       0xe0 lib/built-in.o
 .text.efi_register_protocol_notify
                0x000326dc       0x1c lib/built-in.o
 .text.efi_uninstall_protocol_interface
                0x000326f8       0x1c lib/built-in.o
 .text.efi_reinstall_protocol_interface
                0x00032714       0x1c lib/built-in.o
 .text.efi_install_protocol_interface
                0x00032730       0x1c lib/built-in.o
 .text.efi_check_event
                0x0003274c       0x1c lib/built-in.o
 .text.efi_close_event
                0x00032768       0x34 lib/built-in.o
 .text.efi_signal_event
                0x0003279c       0x1c lib/built-in.o
 .text.efi_set_timer
                0x000327b8       0xd8 lib/built-in.o
 .text.efi_create_event
                0x00032890       0x64 lib/built-in.o
 .text.efi_free_pool
                0x000328f4       0x2c lib/built-in.o
 .text.efi_allocate_pool
                0x00032920       0x40 lib/built-in.o
 .text.efi_restore_tpl
                0x00032960       0x18 lib/built-in.o
 .text.efi_raise_tpl
                0x00032978       0x1c lib/built-in.o
 .text.efi_get_memory_map_ext
                0x00032994       0x44 lib/built-in.o
                0x00032994                efi_get_memory_map_ext
 .text.efi_free_pages_ext
                0x000329d8       0x34 lib/built-in.o
                0x000329d8                efi_free_pages_ext
 .text.efi_allocate_pages_ext
                0x00032a0c       0x3c lib/built-in.o
                0x00032a0c                efi_allocate_pages_ext
 .text.efi_exit_func
                0x00032a48       0x10 lib/built-in.o
                0x00032a48                efi_exit_func
 .text.efi_timer_check
                0x00032a58       0x70 lib/built-in.o
                0x00032a58                efi_timer_check
 .text.efi_wait_for_event
                0x00032ac8       0x4c lib/built-in.o
 .text.efi_get_time
                0x00032b14        0x8 lib/built-in.o
 .text.efi_reset_system
                0x00032b1c       0x34 lib/built-in.o
 .text.efi_runtime_relocate
                0x00032b50      0x14c lib/built-in.o
                0x00032b50                efi_runtime_relocate
 .text.efi_set_virtual_address_map
                0x00032c9c       0xb8 lib/built-in.o
 .text.efi_cin_reset
                0x00032d54       0x14 lib/built-in.o
 .text.efi_cout_set_attribute
                0x00032d68       0x14 lib/built-in.o
 .text.efi_cout_test_string
                0x00032d7c       0x14 lib/built-in.o
 .text.efi_cout_reset
                0x00032d90       0x14 lib/built-in.o
 .text.efi_cin_lock_std_in
                0x00032da4       0x14 lib/built-in.o
 .text.efi_cin_set_mode
                0x00032db8       0x14 lib/built-in.o
 .text.efi_cin_get_mode
                0x00032dcc       0x44 lib/built-in.o
 .text.efi_cout_enable_cursor
                0x00032e10       0x30 lib/built-in.o
 .text.efi_cout_set_cursor_position
                0x00032e40       0x40 lib/built-in.o
 .text.efi_cout_clear_screen
                0x00032e80       0x20 lib/built-in.o
 .text.efi_cout_output_string
                0x00032ea0       0xf0 lib/built-in.o
 .text.efi_cout_set_mode
                0x00032f90       0x20 lib/built-in.o
 .text.efi_cin_read_key_stroke
                0x00032fb0      0x134 lib/built-in.o
 .text.efi_cout_query_mode
                0x000330e4      0x14c lib/built-in.o
 .text.efi_mem_cmp
                0x00033230       0x38 lib/built-in.o
 .text.efi_find_free_memory
                0x00033268       0xb4 lib/built-in.o
 .text.efi_add_memory_map
                0x0003331c      0x318 lib/built-in.o
                0x0003331c                efi_add_memory_map
 .text.efi_allocate_pages
                0x00033634       0xb0 lib/built-in.o
                0x00033634                efi_allocate_pages
 .text.efi_alloc
                0x000336e4       0x50 lib/built-in.o
                0x000336e4                efi_alloc
 .text.efi_free_pages
                0x00033734        0x8 lib/built-in.o
                0x00033734                efi_free_pages
 .text.efi_get_memory_map
                0x0003373c       0xac lib/built-in.o
                0x0003373c                efi_get_memory_map
 .text.efi_memory_init
                0x000337e8       0xd4 lib/built-in.o
                0x000337e8                efi_memory_init
 .text.gop_query_mode
                0x000338bc       0x30 lib/built-in.o
 .text.gop_set_mode
                0x000338ec       0x20 lib/built-in.o
 .text.gop_blt  0x0003390c      0x158 lib/built-in.o
 .text.efi_gop_register
                0x00033a64       0xf4 lib/built-in.o
                0x00033a64                efi_gop_register
 .text.efi_disk_open_block
                0x00033b58       0x10 lib/built-in.o
 .text.efi_disk_open_dp
                0x00033b68       0x10 lib/built-in.o
 .text.efi_disk_add_dev
                0x00033b78      0x150 lib/built-in.o
 .text.efi_disk_flush_blocks
                0x00033cc8       0x14 lib/built-in.o
 .text.efi_disk_reset
                0x00033cdc       0x14 lib/built-in.o
 .text.efi_disk_rw_blocks.isra.0
                0x00033cf0       0xb8 lib/built-in.o
 .text.efi_disk_write_blocks
                0x00033da8       0x28 lib/built-in.o
 .text.efi_disk_read_blocks
                0x00033dd0       0x28 lib/built-in.o
 .text.efi_disk_register
                0x00033df8      0x15c lib/built-in.o
                0x00033df8                efi_disk_register
 .text.zcfree   0x00033f54        0x8 lib/built-in.o
                0x00033f54                zcfree
 .text.zcalloc  0x00033f5c        0x8 lib/built-in.o
                0x00033f5c                zcalloc
 .text.inflate_fast
                0x00033f64      0x5a8 lib/built-in.o
                0x00033f64                inflate_fast
 .text.inflate_table
                0x0003450c      0x5b0 lib/built-in.o
                0x0003450c                inflate_table
 .text.inflateReset
                0x00034abc       0x7c lib/built-in.o
                0x00034abc                inflateReset
 .text.inflateInit2_
                0x00034b38      0x108 lib/built-in.o
                0x00034b38                inflateInit2_
 .text.inflateEnd
                0x00034c40       0x64 lib/built-in.o
                0x00034c40                inflateEnd
 .text.adler32  0x00034ca4      0x34c lib/built-in.o
                0x00034ca4                adler32
 .text.inflate  0x00034ff0     0x163c lib/built-in.o
                0x00034ff0                inflate
 .text.crc16_ccitt
                0x0003662c       0x40 lib/built-in.o
                0x0003662c                crc16_ccitt
 .text.gzfree   0x0003666c        0x8 lib/built-in.o
                0x0003666c                gzfree
 .text.gzalloc  0x00036674       0x10 lib/built-in.o
                0x00036674                gzalloc
 .text.zunzip   0x00036684      0x114 lib/built-in.o
                0x00036684                zunzip
 .text.gunzip   0x00036798       0xac lib/built-in.o
                0x00036798                gunzip
 .text.initcall_run_list
                0x00036844       0x64 lib/built-in.o
                0x00036844                initcall_run_list
 .text.lmb_add_region
                0x000368a8      0x1d0 lib/built-in.o
 .text.lmb_init
                0x00036a78       0x28 lib/built-in.o
                0x00036a78                lmb_init
 .text.lmb_add  0x00036aa0        0x4 lib/built-in.o
                0x00036aa0                lmb_add
 .text.lmb_free
                0x00036aa4      0x10c lib/built-in.o
                0x00036aa4                lmb_free
 .text.lmb_reserve
                0x00036bb0        0x8 lib/built-in.o
                0x00036bb0                lmb_reserve
 .text.__lmb_alloc_base
                0x00036bb8      0x178 lib/built-in.o
                0x00036bb8                __lmb_alloc_base
 .text.lmb_alloc_base
                0x00036d30       0x34 lib/built-in.o
                0x00036d30                lmb_alloc_base
 .text.lmb_alloc
                0x00036d64        0x8 lib/built-in.o
                0x00036d64                lmb_alloc
 .text.board_lmb_reserve
                0x00036d6c        0x4 lib/built-in.o
                0x00036d6c                board_lmb_reserve
 .text.string_to_ip
                0x00036d70       0x70 lib/built-in.o
                0x00036d70                string_to_ip
 .text.qsort    0x00036de0       0xe0 lib/built-in.o
                0x00036de0                qsort
 .text.strcmp_compar
                0x00036ec0        0xc lib/built-in.o
                0x00036ec0                strcmp_compar
 .text.merge    0x00036ecc       0x64 lib/built-in.o
 .text.list_sort
                0x00036f30      0x1a4 lib/built-in.o
                0x00036f30                list_sort
 .text.fdt_check_header
                0x000370d4       0xc4 lib/built-in.o
                0x000370d4                fdt_check_header
 .text.fdt_offset_ptr
                0x00037198       0x8c lib/built-in.o
                0x00037198                fdt_offset_ptr
 .text.fdt_next_tag
                0x00037224      0x120 lib/built-in.o
                0x00037224                fdt_next_tag
 .text._fdt_check_node_offset
                0x00037344       0x38 lib/built-in.o
                0x00037344                _fdt_check_node_offset
 .text._fdt_check_prop_offset
                0x0003737c       0x38 lib/built-in.o
                0x0003737c                _fdt_check_prop_offset
 .text.fdt_next_node
                0x000373b4       0xc0 lib/built-in.o
                0x000373b4                fdt_next_node
 .text._fdt_find_string
                0x00037474       0x58 lib/built-in.o
                0x00037474                _fdt_find_string
 .text.fdt_move
                0x000374cc       0x5c lib/built-in.o
                0x000374cc                fdt_move
 .text._nextprop
                0x00037528       0x50 lib/built-in.o
 .text.fdt_path_next_seperator
                0x00037578       0x50 lib/built-in.o
 .text.fdt_string
                0x000375c8       0x28 lib/built-in.o
                0x000375c8                fdt_string
 .text.fdt_get_mem_rsv
                0x000375f0       0xf4 lib/built-in.o
                0x000375f0                fdt_get_mem_rsv
 .text.fdt_num_mem_rsv
                0x000376e4       0xa4 lib/built-in.o
                0x000376e4                fdt_num_mem_rsv
 .text.fdt_subnode_offset_namelen
                0x00037788       0xd0 lib/built-in.o
                0x00037788                fdt_subnode_offset_namelen
 .text.fdt_subnode_offset
                0x00037858       0x30 lib/built-in.o
                0x00037858                fdt_subnode_offset
 .text.fdt_get_name
                0x00037888       0x80 lib/built-in.o
                0x00037888                fdt_get_name
 .text.fdt_first_property_offset
                0x00037908       0x20 lib/built-in.o
                0x00037908                fdt_first_property_offset
 .text.fdt_next_property_offset
                0x00037928       0x20 lib/built-in.o
                0x00037928                fdt_next_property_offset
 .text.fdt_get_property_by_offset
                0x00037948       0x7c lib/built-in.o
                0x00037948                fdt_get_property_by_offset
 .text.fdt_get_property_namelen
                0x000379c4       0xd0 lib/built-in.o
                0x000379c4                fdt_get_property_namelen
 .text.fdt_get_property
                0x00037a94       0x38 lib/built-in.o
                0x00037a94                fdt_get_property
 .text.fdt_getprop_namelen
                0x00037acc       0x1c lib/built-in.o
                0x00037acc                fdt_getprop_namelen
 .text.fdt_getprop_by_offset
                0x00037ae8       0x5c lib/built-in.o
                0x00037ae8                fdt_getprop_by_offset
 .text.fdt_getprop
                0x00037b44       0x38 lib/built-in.o
                0x00037b44                fdt_getprop
 .text.fdt_get_alias_namelen
                0x00037b7c       0x48 lib/built-in.o
                0x00037b7c                fdt_get_alias_namelen
 .text.fdt_path_offset
                0x00037bc4       0xec lib/built-in.o
                0x00037bc4                fdt_path_offset
 .text.fdt_supernode_atdepth_offset
                0x00037cb0       0xb8 lib/built-in.o
                0x00037cb0                fdt_supernode_atdepth_offset
 .text.fdt_node_depth
                0x00037d68       0x24 lib/built-in.o
                0x00037d68                fdt_node_depth
 .text.fdt_parent_offset
                0x00037d8c       0x30 lib/built-in.o
                0x00037d8c                fdt_parent_offset
 .text._fdt_blocks_misordered
                0x00037dbc       0xcc lib/built-in.o
 .text._fdt_splice
                0x00037e88       0xb4 lib/built-in.o
 .text._fdt_find_add_string
                0x00037f3c      0x120 lib/built-in.o
 .text._fdt_splice_struct
                0x0003805c       0x9c lib/built-in.o
 .text._fdt_splice_mem_rsv
                0x000380f8       0xa8 lib/built-in.o
 .text._fdt_packblocks
                0x000381a0      0x148 lib/built-in.o
 .text._fdt_add_property
                0x000382e8       0xd4 lib/built-in.o
 .text._fdt_rw_check_header
                0x000383bc       0x8c lib/built-in.o
 .text.fdt_add_mem_rsv
                0x00038448      0x144 lib/built-in.o
                0x00038448                fdt_add_mem_rsv
 .text.fdt_del_mem_rsv
                0x0003858c       0x6c lib/built-in.o
                0x0003858c                fdt_del_mem_rsv
 .text.fdt_set_name
                0x000385f8       0x8c lib/built-in.o
                0x000385f8                fdt_set_name
 .text.fdt_setprop
                0x00038684       0xf0 lib/built-in.o
                0x00038684                fdt_setprop
 .text.fdt_delprop
                0x00038774       0x64 lib/built-in.o
                0x00038774                fdt_delprop
 .text.fdt_add_subnode_namelen
                0x000387d8      0x10c lib/built-in.o
                0x000387d8                fdt_add_subnode_namelen
 .text.fdt_add_subnode
                0x000388e4       0x30 lib/built-in.o
                0x000388e4                fdt_add_subnode
 .text.fdt_del_node
                0x00038914       0x70 lib/built-in.o
                0x00038914                fdt_del_node
 .text.fdt_open_into
                0x00038984      0x258 lib/built-in.o
                0x00038984                fdt_open_into
 .text.fdt_strerror
                0x00038bdc       0x58 lib/built-in.o
                0x00038bdc                fdt_strerror
 .text._fdt_node_end_offset
                0x00038c34       0x40 lib/built-in.o
                0x00038c34                _fdt_node_end_offset
 .text.fdt_address_cells
                0x00038c74       0x60 lib/built-in.o
                0x00038c74                fdt_address_cells
 .text.fdt_size_cells
                0x00038cd4       0x5c lib/built-in.o
                0x00038cd4                fdt_size_cells
 .text.cmpkey   0x00038d30       0x14 lib/built-in.o
 .text._hdelete.isra.1
                0x00038d44       0x50 lib/built-in.o
 .text.drop_var_from_set.part.2
                0x00038d94       0x50 lib/built-in.o
 .text.match_string
                0x00038de4       0xb8 lib/built-in.o
 .text.match_entry
                0x00038e9c       0xc0 lib/built-in.o
 .text.hcreate_r
                0x00038f5c       0xb4 lib/built-in.o
                0x00038f5c                hcreate_r
 .text.hdestroy_r
                0x00039010       0x78 lib/built-in.o
                0x00039010                hdestroy_r
 .text.hmatch_r
                0x00039088       0xa0 lib/built-in.o
                0x00039088                hmatch_r
 .text.hsearch_r
                0x00039128      0x498 lib/built-in.o
                0x00039128                hsearch_r
 .text.hdelete_r
                0x000395c0       0xd4 lib/built-in.o
                0x000395c0                hdelete_r
 .text.hexport_r
                0x00039694      0x2a4 lib/built-in.o
                0x00039694                hexport_r
 .text.himport_r
                0x00039938      0x3fc lib/built-in.o
                0x00039938                himport_r
 .text.hwalk_r  0x00039d34       0x60 lib/built-in.o
                0x00039d34                hwalk_r
 .text.display_options
                0x00039d94       0x20 lib/built-in.o
                0x00039d94                display_options
 .text.print_size
                0x00039db4      0x140 lib/built-in.o
                0x00039db4                print_size
 .text.print_buffer
                0x00039ef4      0x1c4 lib/built-in.o
                0x00039ef4                print_buffer
 .text.crc32_no_comp
                0x0003a0b8       0xd8 lib/built-in.o
                0x0003a0b8                crc32_no_comp
 .text.crc32    0x0003a190       0x14 lib/built-in.o
                0x0003a190                crc32
 .text.crc32_wd
                0x0003a1a4        0x4 lib/built-in.o
                0x0003a1a4                crc32_wd
 .text.__div64_32
                0x0003a1a8       0xe0 lib/built-in.o
                0x0003a1a8                __div64_32
 .text.hang     0x0003a288       0x1c lib/built-in.o
                0x0003a288                hang
 .text.skip_spaces
                0x0003a2a4       0x28 lib/built-in.o
                0x0003a2a4                skip_spaces
 .text.strim    0x0003a2cc       0x60 lib/built-in.o
                0x0003a2cc                strim
 .text.emit     0x0003a32c       0x24 lib/built-in.o
 .text.store_char_in_data
                0x0003a350       0x28 lib/built-in.o
 .text.get_escape_char
                0x0003a378       0x94 lib/built-in.o
 .text.match    0x0003a40c      0x3fc lib/built-in.o
 .text.loop_greedy
                0x0003a808       0x8c lib/built-in.o
 .text.loop_non_greedy
                0x0003a894       0x80 lib/built-in.o
 .text.relocate
                0x0003a914       0x40 lib/built-in.o
 .text.fixup_branch.part.0
                0x0003a954       0x38 lib/built-in.o
 .text.quantifier
                0x0003a98c       0x9c lib/built-in.o
 .text.compile  0x0003aa28      0x38c lib/built-in.o
 .text.slre_compile
                0x0003adb4       0xb4 lib/built-in.o
                0x0003adb4                slre_compile
 .text.slre_match
                0x0003ae68       0x98 lib/built-in.o
                0x0003ae68                slre_match
 .text.strncasecmp
                0x0003af00       0x84 lib/built-in.o
                0x0003af00                strncasecmp
 .text.strcpy   0x0003af84       0x1c lib/built-in.o
                0x0003af84                strcpy
 .text.strncpy  0x0003afa0       0x24 lib/built-in.o
                0x0003afa0                strncpy
 .text.strcat   0x0003afc4       0x30 lib/built-in.o
                0x0003afc4                strcat
 .text.strncat  0x0003aff4       0x54 lib/built-in.o
                0x0003aff4                strncat
 .text.strcmp   0x0003b048       0x30 lib/built-in.o
                0x0003b048                strcmp
 .text.strncmp  0x0003b078       0x44 lib/built-in.o
                0x0003b078                strncmp
 .text.strchr   0x0003b0bc       0x34 lib/built-in.o
                0x0003b0bc                strchr
 .text.strlen   0x0003b0f0       0x20 lib/built-in.o
                0x0003b0f0                strlen
 .text.strrchr  0x0003b110       0x3c lib/built-in.o
                0x0003b110                strrchr
 .text.strnlen  0x0003b14c       0x30 lib/built-in.o
                0x0003b14c                strnlen
 .text.strdup   0x0003b17c       0x38 lib/built-in.o
                0x0003b17c                strdup
 .text.memset   0x0003b1b4       0x6c lib/built-in.o
                0x0003b1b4                memset
 .text.memcpy   0x0003b220       0x68 lib/built-in.o
                0x0003b220                memcpy
 .text.strlcpy  0x0003b288       0x50 lib/built-in.o
                0x0003b288                strlcpy
 .text.memmove  0x0003b2d8       0x60 lib/built-in.o
                0x0003b2d8                memmove
 .text.memcmp   0x0003b338       0x34 lib/built-in.o
                0x0003b338                memcmp
 .text.memscan  0x0003b36c       0x2c lib/built-in.o
                0x0003b36c                memscan
 .text.strstr   0x0003b398       0x64 lib/built-in.o
                0x0003b398                strstr
 .text.memchr   0x0003b3fc       0x30 lib/built-in.o
                0x0003b3fc                memchr
 .text.get_tbclk
                0x0003b42c        0xc lib/built-in.o
                0x0003b42c                get_tbclk
 .text.get_ticks
                0x0003b438       0x40 lib/built-in.o
                0x0003b438                get_ticks
 .text.timer_init
                0x0003b478        0x8 lib/built-in.o
                0x0003b478                timer_init
 .text.get_timer
                0x0003b480       0x60 lib/built-in.o
                0x0003b480                get_timer
 .text.timer_get_us
                0x0003b4e0       0x58 lib/built-in.o
                0x0003b4e0                timer_get_us
 .text.__udelay
                0x0003b538       0x7c lib/built-in.o
                0x0003b538                __udelay
 .text.udelay   0x0003b5b4       0x30 lib/built-in.o
                0x0003b5b4                udelay
 .text.mdelay   0x0003b5e4       0x24 lib/built-in.o
                0x0003b5e4                mdelay
 .text.uuid_str_valid
                0x0003b608       0x94 lib/built-in.o
                0x0003b608                uuid_str_valid
 .text.uuid_str_to_bin
                0x0003b69c      0x1ec lib/built-in.o
                0x0003b69c                uuid_str_to_bin
 .text.uuid_bin_to_str
                0x0003b888       0xa4 lib/built-in.o
                0x0003b888                uuid_bin_to_str
 .text.put_dec_trunc
                0x0003b92c       0xf4 lib/built-in.o
 .text.string   0x0003ba20       0xb8 lib/built-in.o
 .text.put_dec  0x0003bad8      0x148 lib/built-in.o
 .text.number   0x0003bc20      0x2c0 lib/built-in.o
 .text.vsnprintf_internal
                0x0003bee0      0x6dc lib/built-in.o
 .text.vscnprintf
                0x0003c5bc       0x24 lib/built-in.o
                0x0003c5bc                vscnprintf
 .text.snprintf
                0x0003c5e0       0x24 lib/built-in.o
                0x0003c5e0                snprintf
 .text.vsprintf
                0x0003c604       0x14 lib/built-in.o
                0x0003c604                vsprintf
 .text.sprintf  0x0003c618       0x24 lib/built-in.o
                0x0003c618                sprintf
 .text.printf   0x0003c63c       0x4c lib/built-in.o
                0x0003c63c                printf
 .text.vprintf  0x0003c688       0x38 lib/built-in.o
                0x0003c688                vprintf
 .text.simple_itoa
                0x0003c6c0       0x58 lib/built-in.o
                0x0003c6c0                simple_itoa
 .text.panic_finish
                0x0003c718       0x30 lib/built-in.o
 .text.panic_str
                0x0003c748        0xc lib/built-in.o
                0x0003c748                panic_str
 .text.panic    0x0003c754       0x1c lib/built-in.o
                0x0003c754                panic
 .text.simple_strtoul
                0x0003c770       0xc0 lib/built-in.o
                0x0003c770                simple_strtoul
 .text.strict_strtoul
                0x0003c830       0x78 lib/built-in.o
                0x0003c830                strict_strtoul
 .text.simple_strtol
                0x0003c8a8       0x28 lib/built-in.o
                0x0003c8a8                simple_strtol
 .text.ustrtoul
                0x0003c8d0       0x70 lib/built-in.o
                0x0003c8d0                ustrtoul
 .text.simple_strtoull
                0x0003c940       0xec lib/built-in.o
                0x0003c940                simple_strtoull
 .text.ustrtoull
                0x0003ca2c       0x88 lib/built-in.o
                0x0003ca2c                ustrtoull
 .text.trailing_strtoln
                0x0003cab4       0x60 lib/built-in.o
                0x0003cab4                trailing_strtoln
 .text.trailing_strtol
                0x0003cb14        0x8 lib/built-in.o
                0x0003cb14                trailing_strtol
 .text.compute_ip_checksum
                0x0003cb1c       0x6c net/built-in.o
                0x0003cb1c                compute_ip_checksum
 .text.ip_checksum_ok
                0x0003cb88       0x20 net/built-in.o
                0x0003cb88                ip_checksum_ok
 .text.arp_init
                0x0003cba8       0x50 net/built-in.o
                0x0003cba8                arp_init
 .text.arp_raw_request
                0x0003cbf8       0xc4 net/built-in.o
                0x0003cbf8                arp_raw_request
 .text.arp_request
                0x0003ccbc       0x80 net/built-in.o
                0x0003ccbc                arp_request
 .text.arp_timeout_check
                0x0003cd3c       0x94 net/built-in.o
                0x0003cd3c                arp_timeout_check
 .text.arp_receive
                0x0003cdd0      0x228 net/built-in.o
                0x0003cdd0                arp_receive
 .text.dhcp_extended
                0x0003cff8      0x228 net/built-in.o
 .text.dhcp_process_options
                0x0003d220      0x1ec net/built-in.o
 .text.dhcp_packet_process_options
                0x0003d40c       0x80 net/built-in.o
 .text.dhcp_handler
                0x0003d48c      0x3e0 net/built-in.o
 .text.bootp_reset
                0x0003d86c       0x44 net/built-in.o
                0x0003d86c                bootp_reset
 .text.bootp_request
                0x0003d8b0      0x29c net/built-in.o
                0x0003d8b0                bootp_request
 .text.bootp_timeout_handler
                0x0003db4c       0x70 net/built-in.o
 .text.dhcp_request
                0x0003dbbc        0x4 net/built-in.o
                0x0003dbbc                dhcp_request
 .text.__def_eth_init
                0x0003dbc0        0x8 net/built-in.o
                0x0003dbc0                cpu_eth_init
                0x0003dbc0                board_eth_init
 .text.on_ethaddr
                0x0003dbc8       0x90 net/built-in.o
 .text.eth_set_current_to_next
                0x0003dc58       0x18 net/built-in.o
                0x0003dc58                eth_set_current_to_next
 .text.eth_set_dev
                0x0003dc70       0x10 net/built-in.o
                0x0003dc70                eth_set_dev
 .text.eth_get_dev_by_name
                0x0003dc80       0x88 net/built-in.o
                0x0003dc80                eth_get_dev_by_name
 .text.eth_get_dev_by_index
                0x0003dd08       0x40 net/built-in.o
                0x0003dd08                eth_get_dev_by_index
 .text.eth_get_dev_index
                0x0003dd48       0x1c net/built-in.o
                0x0003dd48                eth_get_dev_index
 .text.eth_write_hwaddr
                0x0003dd64      0x21c net/built-in.o
                0x0003dd64                eth_write_hwaddr
 .text.eth_register
                0x0003df80       0x7c net/built-in.o
                0x0003df80                eth_register
 .text.eth_unregister
                0x0003dffc       0xa4 net/built-in.o
                0x0003dffc                eth_unregister
 .text.eth_initialize
                0x0003e0a0      0x18c net/built-in.o
                0x0003e0a0                eth_initialize
 .text.eth_init
                0x0003e22c       0x78 net/built-in.o
                0x0003e22c                eth_init
 .text.eth_halt
                0x0003e2a4       0x30 net/built-in.o
                0x0003e2a4                eth_halt
 .text.eth_send
                0x0003e2d4       0x38 net/built-in.o
                0x0003e2d4                eth_send
 .text.eth_rx   0x0003e30c       0x2c net/built-in.o
                0x0003e30c                eth_rx
 .text.eth_parse_enetaddr
                0x0003e338       0x54 net/built-in.o
                0x0003e338                eth_parse_enetaddr
 .text.eth_getenv_enetaddr
                0x0003e38c       0x5c net/built-in.o
                0x0003e38c                eth_getenv_enetaddr
 .text.eth_setenv_enetaddr
                0x0003e3e8       0x34 net/built-in.o
                0x0003e3e8                eth_setenv_enetaddr
 .text.eth_getenv_enetaddr_by_index
                0x0003e41c       0x50 net/built-in.o
                0x0003e41c                eth_getenv_enetaddr_by_index
 .text.eth_setenv_enetaddr_by_index
                0x0003e46c       0x50 net/built-in.o
                0x0003e46c                eth_setenv_enetaddr_by_index
 .text.eth_common_init
                0x0003e4bc       0x14 net/built-in.o
                0x0003e4bc                eth_common_init
 .text.eth_mac_skip
                0x0003e4d0       0x40 net/built-in.o
                0x0003e4d0                eth_mac_skip
 .text.eth_get_name
                0x0003e510       0x20 net/built-in.o
                0x0003e510                eth_get_name
 .text.eth_current_changed
                0x0003e530       0x9c net/built-in.o
                0x0003e530                eth_current_changed
 .text.eth_set_current
                0x0003e5cc       0x90 net/built-in.o
                0x0003e5cc                eth_set_current
 .text.eth_try_another
                0x0003e65c       0x88 net/built-in.o
                0x0003e65c                eth_try_another
 .text.start_again_timeout_handler
                0x0003e6e4       0x14 net/built-in.o
 .text.dummy_handler
                0x0003e6f8        0x4 net/built-in.o
 .text.on_serverip
                0x0003e6fc       0x28 net/built-in.o
 .text.on_netmask
                0x0003e724       0x28 net/built-in.o
 .text.on_gatewayip
                0x0003e74c       0x28 net/built-in.o
 .text.on_ipaddr
                0x0003e774       0x28 net/built-in.o
 .text.net_init_loop
                0x0003e79c       0x28 net/built-in.o
 .text.net_clear_handlers
                0x0003e7c4       0x34 net/built-in.o
 .text.net_auto_load
                0x0003e7f8       0x64 net/built-in.o
                0x0003e7f8                net_auto_load
 .text.net_init
                0x0003e85c       0x70 net/built-in.o
                0x0003e85c                net_init
 .text.net_start_again
                0x0003e8cc      0x17c net/built-in.o
                0x0003e8cc                net_start_again
 .text.net_loop
                0x0003ea48      0x3ac net/built-in.o
                0x0003ea48                net_loop
 .text.net_set_udp_handler
                0x0003edf4       0x20 net/built-in.o
                0x0003edf4                net_set_udp_handler
 .text.net_get_arp_handler
                0x0003ee14       0x10 net/built-in.o
                0x0003ee14                net_get_arp_handler
 .text.net_set_timeout_handler
                0x0003ee24       0x4c net/built-in.o
                0x0003ee24                net_set_timeout_handler
 .text.net_process_received_packet
                0x0003ee70      0x2dc net/built-in.o
                0x0003ee70                net_process_received_packet
 .text.net_eth_hdr_size
                0x0003f14c       0x40 net/built-in.o
                0x0003f14c                net_eth_hdr_size
 .text.net_set_ether
                0x0003f18c       0xac net/built-in.o
                0x0003f18c                net_set_ether
 .text.net_update_ether
                0x0003f238       0x84 net/built-in.o
                0x0003f238                net_update_ether
 .text.net_set_ip_header
                0x0003f2bc       0x88 net/built-in.o
                0x0003f2bc                net_set_ip_header
 .text.net_set_udp_header
                0x0003f344       0xa4 net/built-in.o
                0x0003f344                net_set_udp_header
 .text.net_send_udp_packet
                0x0003f3e8      0x114 net/built-in.o
                0x0003f3e8                net_send_udp_packet
 .text.copy_filename
                0x0003f4fc       0x4c net/built-in.o
                0x0003f4fc                copy_filename
 .text.on_bootfile
                0x0003f548       0x34 net/built-in.o
 .text.ip_to_string
                0x0003f57c       0x50 net/built-in.o
                0x0003f57c                ip_to_string
 .text.string_to_vlan
                0x0003f5cc       0x5c net/built-in.o
                0x0003f5cc                string_to_vlan
 .text.on_vlan  0x0003f628       0x28 net/built-in.o
 .text.on_nvlan
                0x0003f650       0x28 net/built-in.o
 .text.basename
                0x0003f678       0x40 net/built-in.o
 .text.rpc_add_credentials
                0x0003f6b8       0xdc net/built-in.o
 .text.rpc_lookup_reply
                0x0003f794       0xf0 net/built-in.o
 .text.nfs_mount_reply
                0x0003f884       0xc0 net/built-in.o
 .text.nfs_umountall_reply
                0x0003f944       0xb0 net/built-in.o
 .text.nfs_lookup_reply
                0x0003f9f4       0xb0 net/built-in.o
 .text.rpc_req  0x0003faa4      0x138 net/built-in.o
 .text.nfs_mount_req
                0x0003fbdc       0xa4 net/built-in.o
 .text.nfs_umountall_req
                0x0003fc80       0x60 net/built-in.o
 .text.nfs_lookup_req
                0x0003fce0       0xb8 net/built-in.o
 .text.nfs_read_req
                0x0003fd98       0xa0 net/built-in.o
 .text.nfs_readlink_req
                0x0003fe38       0x58 net/built-in.o
 .text.nfs_readlink_reply
                0x0003fe90      0x128 net/built-in.o
 .text.nfs_read_reply.isra.3
                0x0003ffb8      0x184 net/built-in.o
 .text.nfs_send
                0x0004013c      0x114 net/built-in.o
 .text.nfs_handler
                0x00040250      0x25c net/built-in.o
 .text.nfs_timeout_handler
                0x000404ac       0x64 net/built-in.o
 .text.nfs_start
                0x00040510      0x270 net/built-in.o
                0x00040510                nfs_start
 .text.ping_timeout_handler
                0x00040780       0x1c net/built-in.o
 .text.ping_start
                0x0004079c      0x120 net/built-in.o
                0x0004079c                ping_start
 .text.ping_receive
                0x000408bc       0xdc net/built-in.o
                0x000408bc                ping_receive
 .text.tftp_send
                0x00040998      0x1c4 net/built-in.o
 .text.tftp_handler
                0x00040b5c      0x3cc net/built-in.o
 .text.tftp_timeout_handler
                0x00040f28       0x88 net/built-in.o
 .text.tftp_start
                0x00040fb0      0x398 net/built-in.o
                0x00040fb0                tftp_start
 .text.do_dm_dump_devres
                0x00041348        0x8 test/dm/built-in.o
 .text.do_dm    0x00041350       0x6c test/dm/built-in.o
 .text.do_dm_dump_uclass
                0x000413bc       0x10 test/dm/built-in.o
 .text.do_dm_dump_all
                0x000413cc       0x10 test/dm/built-in.o
 .text.raise    0x000413dc       0x1c arch/arm/lib/eabi_compat.o
                0x000413dc                raise
 .text          0x000413f8       0xc8 /home/boricj/Documents/Projects/minix/src/releasetools/rpi-tools/arm-bcm2708/arm-bcm2708-linux-gnueabi/bin/../lib/gcc/arm-bcm2708-linux-gnueabi/4.7.1/libgcc.a(_udivsi3.o)
                0x000413f8                __udivsi3
                0x000413f8                __aeabi_uidiv
                0x000414a0                __aeabi_uidivmod
 .text          0x000414c0       0xfc /home/boricj/Documents/Projects/minix/src/releasetools/rpi-tools/arm-bcm2708/arm-bcm2708-linux-gnueabi/bin/../lib/gcc/arm-bcm2708-linux-gnueabi/4.7.1/libgcc.a(_divsi3.o)
                0x000414c0                __aeabi_idiv
                0x000414c0                __divsi3
                0x0004159c                __aeabi_idivmod
 .text          0x000415bc       0x1c /home/boricj/Documents/Projects/minix/src/releasetools/rpi-tools/arm-bcm2708/arm-bcm2708-linux-gnueabi/bin/../lib/gcc/arm-bcm2708-linux-gnueabi/4.7.1/libgcc.a(_lshrdi3.o)
                0x000415bc                __aeabi_llsr
                0x000415bc                __lshrdi3
 .text          0x000415d8       0x1c /home/boricj/Documents/Projects/minix/src/releasetools/rpi-tools/arm-bcm2708/arm-bcm2708-linux-gnueabi/bin/../lib/gcc/arm-bcm2708-linux-gnueabi/4.7.1/libgcc.a(_ashldi3.o)
                0x000415d8                __ashldi3
                0x000415d8                __aeabi_llsl
 .text          0x000415f4       0x10 /home/boricj/Documents/Projects/minix/src/releasetools/rpi-tools/arm-bcm2708/arm-bcm2708-linux-gnueabi/bin/../lib/gcc/arm-bcm2708-linux-gnueabi/4.7.1/libgcc.a(_dvmd_lnx.o)
                0x000415f4                __aeabi_ldiv0
                0x000415f4                __aeabi_idiv0

.glue_7         0x00041604        0x0
 .glue_7        0x00000000        0x0 linker stubs

.glue_7t        0x00041604        0x0
 .glue_7t       0x00000000        0x0 linker stubs

.vfp11_veneer   0x00041604        0x0
 .vfp11_veneer  0x00000000        0x0 linker stubs

.v4_bx          0x00041604        0x0
 .v4_bx         0x00000000        0x0 linker stubs

.iplt           0x00041604        0x0
 .iplt          0x00000000        0x0 arch/arm/cpu/arm1176/start.o
                0x00041604                . = ALIGN (0x4)

.rodata         0x00041608     0xf1ef
 *(SORT(.rodata*))
 .rodata.efi_boot_services
                0x00041608       0xc8 lib/built-in.o
 .rodata        0x000416d0       0x80 arch/arm/lib/built-in.o
 .rodata.CSWTCH.26
                0x00041750       0x20 common/built-in.o
 .rodata.CSWTCH.28
                0x00041770       0x14 cmd/built-in.o
 .rodata.baudrate_table
                0x00041784       0x14 drivers/serial/built-in.o
 .rodata.bcm2835_ops
                0x00041798       0x18 drivers/mmc/built-in.o
 .rodata.block_drvr
                0x000417b0       0x24 disk/built-in.o
                0x000417b0                block_drvr
 .rodata.boot_os
                0x000417d4       0x60 common/built-in.o
 .rodata.crc_table
                0x00041834      0x400 lib/built-in.o
 .rodata.desc_and_len_tbl
                0x00041c34       0x30 cmd/built-in.o
 .rodata.dwc2_eptype
                0x00041c64       0x10 drivers/usb/host/built-in.o
 .rodata.efi_con_in
                0x00041c74        0xc lib/built-in.o
                0x00041c74                efi_con_in
 .rodata.efi_con_out
                0x00041c80       0x28 lib/built-in.o
                0x00041c80                efi_con_out
 .rodata.efi_console_control
                0x00041ca8        0xc lib/built-in.o
                0x00041ca8                efi_console_control
 .rodata.efi_runtime_detach_list
                0x00041cb4       0x18 lib/built-in.o
 .rodata.env_flags_varaccess_mask
                0x00041ccc       0x10 common/built-in.o
 .rodata.ext_csd_bits.9006
                0x00041cdc       0x14 drivers/mmc/built-in.o
 .rodata.ext_to_hostcaps.9007
                0x00041cf0       0x1c drivers/mmc/built-in.o
 .rodata.fbase  0x00041d0c       0x10 drivers/mmc/built-in.o
 .rodata.fdt_errtable
                0x00041d1c       0x34 lib/built-in.o
 .rodata.gpio_bcm2835_ops
                0x00041d50       0x20 drivers/gpio/built-in.o
 .rodata.gpio_function
                0x00041d70       0x14 drivers/gpio/built-in.o
 .rodata.gpio_platdata
                0x00041d84        0x4 board/raspberrypi/rpi/built-in.o
 .rodata.keywords
                0x00041d88       0x98 cmd/built-in.o
 .rodata.multipliers
                0x00041e20       0x40 drivers/mmc/built-in.o
 .rodata.op_adv
                0x00041e60      0x100 cmd/built-in.o
                0x00041e60                op_adv
 .rodata.op_table
                0x00041f60       0x68 cmd/built-in.o
 .rodata.pl01x_serial_ops
                0x00041fc8       0x14 drivers/serial/built-in.o
 .rodata.prob_dev
                0x00041fdc       0x18 drivers/usb/eth/built-in.o
 .rodata.reg_0_5_desc_tbl
                0x00041ff4       0x30 cmd/built-in.o
 .rodata.reg_0_desc_tbl
                0x00042024       0x78 cmd/built-in.o
 .rodata.reg_1_desc_tbl
                0x0004209c       0xc0 cmd/built-in.o
 .rodata.reg_2_desc_tbl
                0x0004215c        0xc cmd/built-in.o
 .rodata.reg_3_desc_tbl
                0x00042168       0x24 cmd/built-in.o
 .rodata.reg_4_desc_tbl
                0x0004218c       0x90 cmd/built-in.o
 .rodata.reg_5_desc_tbl
                0x0004221c       0x90 cmd/built-in.o
 .rodata.root_info
                0x000422ac        0x8 drivers/built-in.o
 .rodata.rpi_model_unknown
                0x000422b4        0xc board/raspberrypi/rpi/built-in.o
 .rodata.rpi_models_new_scheme
                0x000422c0       0x78 board/raspberrypi/rpi/built-in.o
 .rodata.rpi_models_old_scheme
                0x00042338      0x108 board/raspberrypi/rpi/built-in.o
 .rodata.sdhci_ops
                0x00042440       0x14 drivers/mmc/built-in.o
 .rodata.serial_platdata
                0x00042454       0x10 board/raspberrypi/rpi/built-in.o
 .rodata.uimage_arch
                0x00042464      0x12c common/built-in.o
 .rodata.uimage_comp
                0x00042590       0x54 common/built-in.o
 .rodata.uimage_os
                0x000425e4       0x78 common/built-in.o
 .rodata.uimage_type
                0x0004265c      0x144 common/built-in.o
 .rodata.widths.9008
                0x000427a0       0x14 drivers/mmc/built-in.o
 .rodata.crc16_tab
                0x000427b4      0x200 lib/built-in.o
 .rodata.dbase.7191
                0x000429b4       0x40 lib/built-in.o
 .rodata.dext.7192
                0x000429f4       0x40 lib/built-in.o
 .rodata.distfix
                0x00042a34       0x80 lib/built-in.o
 .rodata.lbase.7189
                0x00042ab4       0x3e lib/built-in.o
 .rodata.lenfix
                0x00042af2      0x800 lib/built-in.o
 .rodata.lext.7190
                0x000432f2       0x3e lib/built-in.o
 .rodata.order.7285
                0x00043330       0x26 lib/built-in.o
 .rodata.smsc95xx_dongles
                0x00043356       0x18 drivers/usb/eth/built-in.o
 .rodata        0x0004336e       0x12 cmd/built-in.o
 .rodata        0x00043380        0x3 common/built-in.o
 .rodata        0x00043383       0x20 lib/built-in.o
 .rodata        0x000433a3        0x7 net/built-in.o
 .rodata.CSWTCH.49
                0x000433aa       0x16 common/built-in.o
 .rodata.__FUNCTION__.7367
                0x000433c0       0x14 net/built-in.o
 .rodata.__FUNCTION__.8538
                0x000433d4       0x17 common/built-in.o
 .rodata.__func__.7007
                0x000433eb        0xf disk/built-in.o
 .rodata.__func__.7019
                0x000433fa       0x12 disk/built-in.o
 .rodata.__func__.7030
                0x0004340c       0x10 common/built-in.o
 .rodata.__func__.7046
                0x0004341c        0xb common/built-in.o
 .rodata.__func__.7053
                0x00043427        0xb common/built-in.o
 .rodata.__func__.7091
                0x00043432        0xf fs/built-in.o
 .rodata.__func__.7158
                0x00043441        0xd disk/built-in.o
 .rodata.__func__.7167
                0x0004344e       0x17 disk/built-in.o
 .rodata.__func__.7172
                0x00043465        0xd disk/built-in.o
 .rodata.__func__.7455
                0x00043472        0xc drivers/mmc/built-in.o
 .rodata.__func__.7469
                0x0004347e        0xc lib/built-in.o
 .rodata.__func__.7484
                0x0004348a        0xe cmd/built-in.o
 .rodata.__func__.7486
                0x00043498       0x14 drivers/mmc/built-in.o
 .rodata.__func__.7508
                0x000434ac       0x13 drivers/mmc/built-in.o
 .rodata.__func__.7521
                0x000434bf        0xe cmd/built-in.o
 .rodata.__func__.7523
                0x000434cd       0x10 drivers/mmc/built-in.o
 .rodata.__func__.7556
                0x000434dd        0xb drivers/mmc/built-in.o
 .rodata.__func__.7568
                0x000434e8        0xa drivers/mmc/built-in.o
 .rodata.__func__.7729
                0x000434f2        0xe common/built-in.o
 .rodata.__func__.8415
                0x00043500       0x18 common/built-in.o
 .rodata.__func__.8592
                0x00043518        0xe drivers/built-in.o
 .rodata.__func__.8924
                0x00043526        0xd drivers/built-in.o
 .rodata.__func__.8930
                0x00043533       0x11 drivers/built-in.o
 .rodata.__func__.8942
                0x00043544        0xd drivers/built-in.o
 .rodata.__func__.8946
                0x00043551       0x14 drivers/built-in.o
 .rodata.__func__.9446
                0x00043565       0x16 drivers/usb/host/built-in.o
 .rodata.__func__.9453
                0x0004357b       0x16 drivers/usb/host/built-in.o
 .rodata.__func__.9458
                0x00043591       0x13 drivers/usb/host/built-in.o
 .rodata.__func__.9485
                0x000435a4       0x17 drivers/usb/host/built-in.o
 .rodata._ctype
                0x000435bb      0x100 lib/built-in.o
                0x000435bb                _ctype
 .rodata.compat.7649
                0x000436bb       0x13 common/built-in.o
 .rodata.default_environment
                0x000436ce      0xc21 common/built-in.o
                0x000436ce                default_environment
 .rodata.digits.6845
                0x000442ef       0x10 lib/built-in.o
 .rodata.disabled.7650
                0x000442ff        0x9 common/built-in.o
 .rodata.efi_block_io_guid
                0x00044308       0x10 lib/built-in.o
 .rodata.efi_gop_guid
                0x00044318       0x10 lib/built-in.o
 .rodata.efi_guid_console_control
                0x00044328       0x10 lib/built-in.o
                0x00044328                efi_guid_console_control
 .rodata.efi_guid_device_path
                0x00044338       0x10 lib/built-in.o
                0x00044338                efi_guid_device_path
 .rodata.efi_guid_loaded_image
                0x00044348       0x10 lib/built-in.o
                0x00044348                efi_guid_loaded_image
 .rodata.env_flags_varaccess_rep
                0x00044358        0x5 common/built-in.o
 .rodata.env_flags_vartype_rep
                0x0004435d        0x7 common/built-in.o
 .rodata.erase_seq
                0x00044364        0x4 common/built-in.o
 .rodata.hex_asc
                0x00044368       0x11 lib/built-in.o
 .rodata.names.7071
                0x00044379        0x6 lib/built-in.o
 .rodata.net_bcast_ethaddr
                0x0004437f        0x6 net/built-in.o
                0x0004437f                net_bcast_ethaddr
 .rodata.str1.1
                0x00044385      0x380 arch/arm/lib/built-in.o
                                0x3c7 (size before relaxing)
 .rodata.str1.1
                0x00044705      0x122 arch/arm/mach-bcm283x/built-in.o
 .rodata.str1.1
                0x00044827      0x2f0 board/raspberrypi/rpi/built-in.o
                                0x303 (size before relaxing)
 .rodata.str1.1
                0x00044b17     0x573f cmd/built-in.o
                               0x5cbe (size before relaxing)
 .rodata.str1.1
                0x0004a256     0x2661 common/built-in.o
                               0x2a52 (size before relaxing)
 .rodata.str1.1
                0x0004c8b7      0xb57 disk/built-in.o
                                0xbc6 (size before relaxing)
 .rodata.str1.1
                0x0004d40e      0x2bf drivers/built-in.o
                                0x2ff (size before relaxing)
 .rodata.str1.1
                0x0004d6cd       0x9a drivers/gpio/built-in.o
                                 0xc4 (size before relaxing)
 .rodata.str1.1
                0x0004d767      0x528 drivers/mmc/built-in.o
                                0x57f (size before relaxing)
 .rodata.str1.1
                0x0004dc8f       0x59 drivers/serial/built-in.o
                                 0xa8 (size before relaxing)
 .rodata.str1.1
                0x0004dce8      0x11c drivers/usb/eth/built-in.o
                                0x121 (size before relaxing)
 .rodata.str1.1
                0x0004de04       0xb9 drivers/usb/host/built-in.o
 .rodata.str1.1
                0x0004debd      0x7d2 fs/built-in.o
                                0x834 (size before relaxing)
 .rodata.str1.1
                0x0004e68f      0x7c8 lib/built-in.o
                                0x84e (size before relaxing)
 .rodata.str1.1
                0x0004ee57      0x7f1 net/built-in.o
                                0x975 (size before relaxing)
 .rodata.str1.1
                0x0004f648       0xdc test/dm/built-in.o
                                 0xe2 (size before relaxing)
 .rodata.str1.1
                0x0004f724       0x1b arch/arm/lib/eabi_compat.o
 .rodata.tab_seq
                0x0004f73f        0x9 common/built-in.o
 .rodata.us_direction
                0x0004f748       0x20 common/built-in.o
 .rodata.usb_kbd_arrow
                0x0004f768        0x4 common/built-in.o
 .rodata.usb_kbd_num_keypad
                0x0004f76c       0x14 common/built-in.o
 .rodata.usb_kbd_numkey
                0x0004f780       0x1b common/built-in.o
 .rodata.usb_kbd_numkey_shifted
                0x0004f79b       0x1b common/built-in.o
 .rodata.version_string
                0x0004f7b6       0x41 cmd/built-in.o
                0x0004f7b6                version_string
 .rodata.video_fontdata
                0x0004f7f7     0x1000 common/built-in.o

.hash           0x000507f8       0x2c
 .hash          0x000507f8       0x2c arch/arm/cpu/arm1176/start.o
                0x00050824                . = ALIGN (0x4)

.data           0x00050828     0x1c94
 *(.data*)
 .data.bootm_help_text
                0x00050828      0x38b cmd/built-in.o
 *fill*         0x00050bb3        0x1 00
 .data.cmd_bootm_sub
                0x00050bb4       0xfc cmd/built-in.o
 .data.bootz_help_text
                0x00050cb0      0x208 cmd/built-in.o
 .data.source_help_text
                0x00050eb8       0x4e cmd/built-in.o
 .data.bootefi_device_path
                0x00050f06       0x88 cmd/built-in.o
 *fill*         0x00050f8e        0x2 00
 .data.loaded_image_info_obj
                0x00050f90       0x2c cmd/built-in.o
 .data.bootefi_image_path
                0x00050fbc       0x88 cmd/built-in.o
 .data.bootefi_help_text
                0x00051044       0xbf cmd/built-in.o
 *fill*         0x00051103        0x1 00
 .data.bootefi_device_obj
                0x00051104       0x2c cmd/built-in.o
 .data.loaded_image_info
                0x00051130       0x40 cmd/built-in.o
 .data.root.7748
                0x00051170        0x2 cmd/built-in.o
 .data.tabs.7832
                0x00051172       0x21 cmd/built-in.o
 .data.fdt_help_text
                0x00051193      0x623 cmd/built-in.o
 *fill*         0x000517b6        0x2 00
 .data.do_echo  0x000517b8        0x4 cmd/built-in.o
 .data.dp_last_length
                0x000517bc        0x4 cmd/built-in.o
 .data.curr_device
                0x000517c0        0x4 cmd/built-in.o
 .data.cmd_mmc  0x000517c4      0x118 cmd/built-in.o
 .data.cmd_pxe_sub
                0x000518dc       0x38 cmd/built-in.o
 .data.pxe_default_paths
                0x00051914       0x10 cmd/built-in.o
                0x00051914                pxe_default_paths
 .data.usb_ether_curr_dev
                0x00051924        0x4 cmd/built-in.o
 .data.usb_stor_curr_dev
                0x00051928        0x4 cmd/built-in.o
 .data.imgextract_help_text
                0x0005192c       0x55 cmd/built-in.o
 .data.env_help_text
                0x00051981      0x24f cmd/built-in.o
 .data.env_id   0x00051bd0        0x4 cmd/built-in.o
 .data.cmd_env_sub
                0x00051bd4      0x118 cmd/built-in.o
 .data.reserved_list
                0x00051cec       0x84 common/built-in.o
 .data.init_sequence_f
                0x00051d70       0x90 common/built-in.o
 .data.init_sequence_r
                0x00051e00       0x70 common/built-in.o
                0x00051e00                init_sequence_r
 .data.first_call
                0x00051e70        0x8 common/built-in.o
 .data.env_name_spec
                0x00051e78        0x4 common/built-in.o
                0x00051e78                env_name_spec
 .data.usb_scan_list
                0x00051e7c        0x8 common/built-in.o
 .data.do_splash.7377
                0x00051e84        0x4 common/built-in.o
 .data.env_htab
                0x00051e88       0x10 common/built-in.o
                0x00051e88                env_htab
 .data.av_      0x00051e98      0x408 common/built-in.o
 .data.sbrk_base
                0x000522a0        0x4 common/built-in.o
 .data.trim_threshold
                0x000522a4        0x4 common/built-in.o
 .data.load_addr
                0x000522a8        0x4 common/built-in.o
                0x000522a8                load_addr
 .data.stdio_names
                0x000522ac        0xc common/built-in.o
                0x000522ac                stdio_names
 .data.hist_cur
                0x000522b8        0x4 common/built-in.o
 .data.system_guid
                0x000522bc       0x10 disk/built-in.o
 .data.cur_dev_num
                0x000522cc        0x4 drivers/mmc/built-in.o
 .data.cmd_timeout.7507
                0x000522d0        0x4 drivers/mmc/built-in.o
 .data.root_hub_config_des
                0x000522d4       0x19 drivers/usb/host/built-in.o
 .data.root_hub_dev_des
                0x000522ed       0x12 drivers/usb/host/built-in.o
 .data.root_hub_str_index0
                0x000522ff        0x4 drivers/usb/host/built-in.o
 .data.root_hub_str_index1
                0x00052303       0x20 drivers/usb/host/built-in.o
 *fill*         0x00052323        0x1 00
 .data.fstypes  0x00052324       0x84 fs/built-in.o
 .data.ext4fs_indir3_blkno
                0x000523a8        0x4 fs/built-in.o
                0x000523a8                ext4fs_indir3_blkno
 .data.ext4fs_indir1_blkno
                0x000523ac        0x4 fs/built-in.o
                0x000523ac                ext4fs_indir1_blkno
 .data.ext4fs_indir2_blkno
                0x000523b0        0x4 fs/built-in.o
                0x000523b0                ext4fs_indir2_blkno
 .data.loaded_image_info_obj.7575
                0x000523b4       0x2c lib/built-in.o
 .data.efi_event
                0x000523e0       0x28 lib/built-in.o
 .data.efi_class_maps
                0x00052408        0x8 lib/built-in.o
 .data.efi_is_direct_boot
                0x00052410        0x1 lib/built-in.o
 *fill*         0x00052411        0x3 00
 .data.efi_obj_list
                0x00052414        0x8 lib/built-in.o
                0x00052414                efi_obj_list
 .data.lastoff.9036
                0x0005241c        0x4 lib/built-in.o
 .data.console_columns
                0x00052420        0x4 lib/built-in.o
 .data.console_rows
                0x00052424        0x4 lib/built-in.o
 .data.efi_con_mode
                0x00052428       0x18 lib/built-in.o
 .data.efi_mem  0x00052440        0x8 lib/built-in.o
                0x00052440                efi_mem
 .data.net_native_vlan
                0x00052448        0x2 net/built-in.o
                0x00052448                net_native_vlan
 .data.net_our_vlan
                0x0005244a        0x2 net/built-in.o
                0x0005244a                net_our_vlan
 .data.first_call.7226
                0x0005244c        0x4 net/built-in.o
 .data.nfs_offset
                0x00052450        0x4 net/built-in.o
 .data.tftp_block_size_option
                0x00052454        0x2 net/built-in.o
 *fill*         0x00052456        0x2 00
 .data.tftp_timeout_count_max
                0x00052458        0x4 net/built-in.o
                0x00052458                tftp_timeout_count_max
 .data.timeout_ms
                0x0005245c        0x4 net/built-in.o
 .data.tftp_block_size
                0x00052460        0x2 net/built-in.o
 *fill*         0x00052462        0x2 00
 .data.timeout_count_max
                0x00052464        0x4 net/built-in.o
 .data.test_commands
                0x00052468       0x54 test/dm/built-in.o

.got            0x000524bc        0x0
 .got           0x00000000        0x0 arch/arm/cpu/arm1176/start.o

.got.plt        0x000524bc        0xc
 .got.plt       0x000524bc        0xc arch/arm/cpu/arm1176/start.o
                0x000524bc                _GLOBAL_OFFSET_TABLE_

.igot.plt       0x000524c8        0x0
 .igot.plt      0x00000000        0x0 arch/arm/cpu/arm1176/start.o
                0x000524c8                . = ALIGN (0x4)
                0x000524c8                . = .
                0x000524c8                . = ALIGN (0x4)

.u_boot_list    0x000524c8      0xb44
 *(SORT(.u_boot_list*))
 .u_boot_list_2_cmd_1
                0x000524c8        0x0 cmd/built-in.o
 .u_boot_list_2_cmd_1
                0x000524c8        0x0 common/built-in.o
 .u_boot_list_2_cmd_2_base
                0x000524c8       0x1c cmd/built-in.o
                0x000524c8                _u_boot_list_2_cmd_2_base
 .u_boot_list_2_cmd_2_bdinfo
                0x000524e4       0x1c cmd/built-in.o
                0x000524e4                _u_boot_list_2_cmd_2_bdinfo
 .u_boot_list_2_cmd_2_boot
                0x00052500       0x1c cmd/built-in.o
                0x00052500                _u_boot_list_2_cmd_2_boot
 .u_boot_list_2_cmd_2_bootd
                0x0005251c       0x1c cmd/built-in.o
                0x0005251c                _u_boot_list_2_cmd_2_bootd
 .u_boot_list_2_cmd_2_bootefi
                0x00052538       0x1c cmd/built-in.o
                0x00052538                _u_boot_list_2_cmd_2_bootefi
 .u_boot_list_2_cmd_2_bootelf
                0x00052554       0x1c cmd/built-in.o
                0x00052554                _u_boot_list_2_cmd_2_bootelf
 .u_boot_list_2_cmd_2_bootm
                0x00052570       0x1c cmd/built-in.o
                0x00052570                _u_boot_list_2_cmd_2_bootm
 .u_boot_list_2_cmd_2_bootp
                0x0005258c       0x1c cmd/built-in.o
                0x0005258c                _u_boot_list_2_cmd_2_bootp
 .u_boot_list_2_cmd_2_bootvx
                0x000525a8       0x1c cmd/built-in.o
                0x000525a8                _u_boot_list_2_cmd_2_bootvx
 .u_boot_list_2_cmd_2_bootz
                0x000525c4       0x1c cmd/built-in.o
                0x000525c4                _u_boot_list_2_cmd_2_bootz
 .u_boot_list_2_cmd_2_cls
                0x000525e0       0x1c common/built-in.o
                0x000525e0                _u_boot_list_2_cmd_2_cls
 .u_boot_list_2_cmd_2_cmp
                0x000525fc       0x1c cmd/built-in.o
                0x000525fc                _u_boot_list_2_cmd_2_cmp
 .u_boot_list_2_cmd_2_coninfo
                0x00052618       0x1c cmd/built-in.o
                0x00052618                _u_boot_list_2_cmd_2_coninfo
 .u_boot_list_2_cmd_2_cp
                0x00052634       0x1c cmd/built-in.o
                0x00052634                _u_boot_list_2_cmd_2_cp
 .u_boot_list_2_cmd_2_crc32
                0x00052650       0x1c cmd/built-in.o
                0x00052650                _u_boot_list_2_cmd_2_crc32
 .u_boot_list_2_cmd_2_dhcp
                0x0005266c       0x1c cmd/built-in.o
                0x0005266c                _u_boot_list_2_cmd_2_dhcp
 .u_boot_list_2_cmd_2_dm
                0x00052688       0x1c test/dm/built-in.o
                0x00052688                _u_boot_list_2_cmd_2_dm
 .u_boot_list_2_cmd_2_echo
                0x000526a4       0x1c cmd/built-in.o
                0x000526a4                _u_boot_list_2_cmd_2_echo
 .u_boot_list_2_cmd_2_editenv
                0x000526c0       0x1c cmd/built-in.o
                0x000526c0                _u_boot_list_2_cmd_2_editenv
 .u_boot_list_2_cmd_2_env
                0x000526dc       0x1c cmd/built-in.o
                0x000526dc                _u_boot_list_2_cmd_2_env
 .u_boot_list_2_cmd_2_exit
                0x000526f8       0x1c cmd/built-in.o
                0x000526f8                _u_boot_list_2_cmd_2_exit
 .u_boot_list_2_cmd_2_ext2load
                0x00052714       0x1c cmd/built-in.o
                0x00052714                _u_boot_list_2_cmd_2_ext2load
 .u_boot_list_2_cmd_2_ext2ls
                0x00052730       0x1c cmd/built-in.o
                0x00052730                _u_boot_list_2_cmd_2_ext2ls
 .u_boot_list_2_cmd_2_ext4load
                0x0005274c       0x1c cmd/built-in.o
                0x0005274c                _u_boot_list_2_cmd_2_ext4load
 .u_boot_list_2_cmd_2_ext4ls
                0x00052768       0x1c cmd/built-in.o
                0x00052768                _u_boot_list_2_cmd_2_ext4ls
 .u_boot_list_2_cmd_2_ext4size
                0x00052784       0x1c cmd/built-in.o
                0x00052784                _u_boot_list_2_cmd_2_ext4size
 .u_boot_list_2_cmd_2_false
                0x000527a0       0x1c cmd/built-in.o
                0x000527a0                _u_boot_list_2_cmd_2_false
 .u_boot_list_2_cmd_2_fatinfo
                0x000527bc       0x1c cmd/built-in.o
                0x000527bc                _u_boot_list_2_cmd_2_fatinfo
 .u_boot_list_2_cmd_2_fatload
                0x000527d8       0x1c cmd/built-in.o
                0x000527d8                _u_boot_list_2_cmd_2_fatload
 .u_boot_list_2_cmd_2_fatls
                0x000527f4       0x1c cmd/built-in.o
                0x000527f4                _u_boot_list_2_cmd_2_fatls
 .u_boot_list_2_cmd_2_fatsize
                0x00052810       0x1c cmd/built-in.o
                0x00052810                _u_boot_list_2_cmd_2_fatsize
 .u_boot_list_2_cmd_2_fatwrite
                0x0005282c       0x1c cmd/built-in.o
                0x0005282c                _u_boot_list_2_cmd_2_fatwrite
 .u_boot_list_2_cmd_2_fdt
                0x00052848       0x1c cmd/built-in.o
                0x00052848                _u_boot_list_2_cmd_2_fdt
 .u_boot_list_2_cmd_2_fstype
                0x00052864       0x1c cmd/built-in.o
                0x00052864                _u_boot_list_2_cmd_2_fstype
 .u_boot_list_2_cmd_2_go
                0x00052880       0x1c cmd/built-in.o
                0x00052880                _u_boot_list_2_cmd_2_go
 .u_boot_list_2_cmd_2_gpio
                0x0005289c       0x1c cmd/built-in.o
                0x0005289c                _u_boot_list_2_cmd_2_gpio
 .u_boot_list_2_cmd_2_help
                0x000528b8       0x1c cmd/built-in.o
                0x000528b8                _u_boot_list_2_cmd_2_help
 .u_boot_list_2_cmd_2_iminfo
                0x000528d4       0x1c cmd/built-in.o
                0x000528d4                _u_boot_list_2_cmd_2_iminfo
 .u_boot_list_2_cmd_2_imxtract
                0x000528f0       0x1c cmd/built-in.o
                0x000528f0                _u_boot_list_2_cmd_2_imxtract
 .u_boot_list_2_cmd_2_itest
                0x0005290c       0x1c cmd/built-in.o
                0x0005290c                _u_boot_list_2_cmd_2_itest
 .u_boot_list_2_cmd_2_lcdputs
                0x00052928       0x1c common/built-in.o
                0x00052928                _u_boot_list_2_cmd_2_lcdputs
 .u_boot_list_2_cmd_2_load
                0x00052944       0x1c cmd/built-in.o
                0x00052944                _u_boot_list_2_cmd_2_load
 .u_boot_list_2_cmd_2_loadb
                0x00052960       0x1c cmd/built-in.o
                0x00052960                _u_boot_list_2_cmd_2_loadb
 .u_boot_list_2_cmd_2_loads
                0x0005297c       0x1c cmd/built-in.o
                0x0005297c                _u_boot_list_2_cmd_2_loads
 .u_boot_list_2_cmd_2_loadx
                0x00052998       0x1c cmd/built-in.o
                0x00052998                _u_boot_list_2_cmd_2_loadx
 .u_boot_list_2_cmd_2_loady
                0x000529b4       0x1c cmd/built-in.o
                0x000529b4                _u_boot_list_2_cmd_2_loady
 .u_boot_list_2_cmd_2_loop
                0x000529d0       0x1c cmd/built-in.o
                0x000529d0                _u_boot_list_2_cmd_2_loop
 .u_boot_list_2_cmd_2_ls
                0x000529ec       0x1c cmd/built-in.o
                0x000529ec                _u_boot_list_2_cmd_2_ls
 .u_boot_list_2_cmd_2_md
                0x00052a08       0x1c cmd/built-in.o
                0x00052a08                _u_boot_list_2_cmd_2_md
 .u_boot_list_2_cmd_2_mii
                0x00052a24       0x1c cmd/built-in.o
                0x00052a24                _u_boot_list_2_cmd_2_mii
 .u_boot_list_2_cmd_2_mm
                0x00052a40       0x1c cmd/built-in.o
                0x00052a40                _u_boot_list_2_cmd_2_mm
 .u_boot_list_2_cmd_2_mmc
                0x00052a5c       0x1c cmd/built-in.o
                0x00052a5c                _u_boot_list_2_cmd_2_mmc
 .u_boot_list_2_cmd_2_mmcinfo
                0x00052a78       0x1c cmd/built-in.o
                0x00052a78                _u_boot_list_2_cmd_2_mmcinfo
 .u_boot_list_2_cmd_2_mw
                0x00052a94       0x1c cmd/built-in.o
                0x00052a94                _u_boot_list_2_cmd_2_mw
 .u_boot_list_2_cmd_2_nfs
                0x00052ab0       0x1c cmd/built-in.o
                0x00052ab0                _u_boot_list_2_cmd_2_nfs
 .u_boot_list_2_cmd_2_nm
                0x00052acc       0x1c cmd/built-in.o
                0x00052acc                _u_boot_list_2_cmd_2_nm
 .u_boot_list_2_cmd_2_part
                0x00052ae8       0x1c cmd/built-in.o
                0x00052ae8                _u_boot_list_2_cmd_2_part
 .u_boot_list_2_cmd_2_ping
                0x00052b04       0x1c cmd/built-in.o
                0x00052b04                _u_boot_list_2_cmd_2_ping
 .u_boot_list_2_cmd_2_printenv
                0x00052b20       0x1c cmd/built-in.o
                0x00052b20                _u_boot_list_2_cmd_2_printenv
 .u_boot_list_2_cmd_2_pxe
                0x00052b3c       0x1c cmd/built-in.o
                0x00052b3c                _u_boot_list_2_cmd_2_pxe
 .u_boot_list_2_cmd_2_question_mark
                0x00052b58       0x1c cmd/built-in.o
                0x00052b58                _u_boot_list_2_cmd_2_question_mark
 .u_boot_list_2_cmd_2_reset
                0x00052b74       0x1c cmd/built-in.o
                0x00052b74                _u_boot_list_2_cmd_2_reset
 .u_boot_list_2_cmd_2_run
                0x00052b90       0x1c cmd/built-in.o
                0x00052b90                _u_boot_list_2_cmd_2_run
 .u_boot_list_2_cmd_2_save
                0x00052bac       0x1c cmd/built-in.o
                0x00052bac                _u_boot_list_2_cmd_2_save
 .u_boot_list_2_cmd_2_saveenv
                0x00052bc8       0x1c cmd/built-in.o
                0x00052bc8                _u_boot_list_2_cmd_2_saveenv
 .u_boot_list_2_cmd_2_setcurs
                0x00052be4       0x1c common/built-in.o
                0x00052be4                _u_boot_list_2_cmd_2_setcurs
 .u_boot_list_2_cmd_2_setenv
                0x00052c00       0x1c cmd/built-in.o
                0x00052c00                _u_boot_list_2_cmd_2_setenv
 .u_boot_list_2_cmd_2_setexpr
                0x00052c1c       0x1c cmd/built-in.o
                0x00052c1c                _u_boot_list_2_cmd_2_setexpr
 .u_boot_list_2_cmd_2_showvar
                0x00052c38       0x1c common/built-in.o
                0x00052c38                _u_boot_list_2_cmd_2_showvar
 .u_boot_list_2_cmd_2_size
                0x00052c54       0x1c cmd/built-in.o
                0x00052c54                _u_boot_list_2_cmd_2_size
 .u_boot_list_2_cmd_2_sleep
                0x00052c70       0x1c cmd/built-in.o
                0x00052c70                _u_boot_list_2_cmd_2_sleep
 .u_boot_list_2_cmd_2_source
                0x00052c8c       0x1c cmd/built-in.o
                0x00052c8c                _u_boot_list_2_cmd_2_source
 .u_boot_list_2_cmd_2_sysboot
                0x00052ca8       0x1c cmd/built-in.o
                0x00052ca8                _u_boot_list_2_cmd_2_sysboot
 .u_boot_list_2_cmd_2_test
                0x00052cc4       0x1c cmd/built-in.o
                0x00052cc4                _u_boot_list_2_cmd_2_test
 .u_boot_list_2_cmd_2_tftpboot
                0x00052ce0       0x1c cmd/built-in.o
                0x00052ce0                _u_boot_list_2_cmd_2_tftpboot
 .u_boot_list_2_cmd_2_true
                0x00052cfc       0x1c cmd/built-in.o
                0x00052cfc                _u_boot_list_2_cmd_2_true
 .u_boot_list_2_cmd_2_usb
                0x00052d18       0x1c cmd/built-in.o
                0x00052d18                _u_boot_list_2_cmd_2_usb
 .u_boot_list_2_cmd_2_usbboot
                0x00052d34       0x1c cmd/built-in.o
                0x00052d34                _u_boot_list_2_cmd_2_usbboot
 .u_boot_list_2_cmd_2_version
                0x00052d50       0x1c cmd/built-in.o
                0x00052d50                _u_boot_list_2_cmd_2_version
 .u_boot_list_2_cmd_3
                0x00052d6c        0x0 cmd/built-in.o
 .u_boot_list_2_cmd_3
                0x00052d6c        0x0 common/built-in.o
 .u_boot_list_2_driver_1
                0x00052d6c        0x0 drivers/built-in.o
 .u_boot_list_2_driver_2_gpio_bcm2835
                0x00052d6c       0x44 drivers/gpio/built-in.o
                0x00052d6c                _u_boot_list_2_driver_2_gpio_bcm2835
 .u_boot_list_2_driver_2_root_driver
                0x00052db0       0x44 drivers/built-in.o
                0x00052db0                _u_boot_list_2_driver_2_root_driver
 .u_boot_list_2_driver_2_serial_pl01x
                0x00052df4       0x44 drivers/serial/built-in.o
                0x00052df4                _u_boot_list_2_driver_2_serial_pl01x
 .u_boot_list_2_driver_3
                0x00052e38        0x0 drivers/built-in.o
 .u_boot_list_2_driver_info_1
                0x00052e38        0x0 drivers/built-in.o
 .u_boot_list_2_driver_info_2_bcm2835_gpios
                0x00052e38        0x8 board/raspberrypi/rpi/built-in.o
                0x00052e38                _u_boot_list_2_driver_info_2_bcm2835_gpios
 .u_boot_list_2_driver_info_2_bcm2835_serials
                0x00052e40        0x8 board/raspberrypi/rpi/built-in.o
                0x00052e40                _u_boot_list_2_driver_info_2_bcm2835_serials
 .u_boot_list_2_driver_info_3
                0x00052e48        0x0 drivers/built-in.o
 .u_boot_list_2_env_clbk_1
                0x00052e48        0x0 common/built-in.o
 .u_boot_list_2_env_clbk_2_baudrate
                0x00052e48        0x8 drivers/serial/built-in.o
                0x00052e48                _u_boot_list_2_env_clbk_2_baudrate
 .u_boot_list_2_env_clbk_2_bootfile
                0x00052e50        0x8 net/built-in.o
                0x00052e50                _u_boot_list_2_env_clbk_2_bootfile
 .u_boot_list_2_env_clbk_2_callbacks
                0x00052e58        0x8 common/built-in.o
                0x00052e58                _u_boot_list_2_env_clbk_2_callbacks
 .u_boot_list_2_env_clbk_2_console
                0x00052e60        0x8 common/built-in.o
                0x00052e60                _u_boot_list_2_env_clbk_2_console
 .u_boot_list_2_env_clbk_2_ethaddr
                0x00052e68        0x8 net/built-in.o
                0x00052e68                _u_boot_list_2_env_clbk_2_ethaddr
 .u_boot_list_2_env_clbk_2_flags
                0x00052e70        0x8 common/built-in.o
                0x00052e70                _u_boot_list_2_env_clbk_2_flags
 .u_boot_list_2_env_clbk_2_gatewayip
                0x00052e78        0x8 net/built-in.o
                0x00052e78                _u_boot_list_2_env_clbk_2_gatewayip
 .u_boot_list_2_env_clbk_2_ipaddr
                0x00052e80        0x8 net/built-in.o
                0x00052e80                _u_boot_list_2_env_clbk_2_ipaddr
 .u_boot_list_2_env_clbk_2_loadaddr
                0x00052e88        0x8 common/built-in.o
                0x00052e88                _u_boot_list_2_env_clbk_2_loadaddr
 .u_boot_list_2_env_clbk_2_netmask
                0x00052e90        0x8 net/built-in.o
                0x00052e90                _u_boot_list_2_env_clbk_2_netmask
 .u_boot_list_2_env_clbk_2_nvlan
                0x00052e98        0x8 net/built-in.o
                0x00052e98                _u_boot_list_2_env_clbk_2_nvlan
 .u_boot_list_2_env_clbk_2_serverip
                0x00052ea0        0x8 net/built-in.o
                0x00052ea0                _u_boot_list_2_env_clbk_2_serverip
 .u_boot_list_2_env_clbk_2_vlan
                0x00052ea8        0x8 net/built-in.o
                0x00052ea8                _u_boot_list_2_env_clbk_2_vlan
 .u_boot_list_2_env_clbk_3
                0x00052eb0        0x0 common/built-in.o
 .u_boot_list_2_part_driver_1
                0x00052eb0        0x0 disk/built-in.o
 .u_boot_list_2_part_driver_2_a_efi
                0x00052eb0       0x14 disk/built-in.o
                0x00052eb0                _u_boot_list_2_part_driver_2_a_efi
 .u_boot_list_2_part_driver_2_dos
                0x00052ec4       0x14 disk/built-in.o
                0x00052ec4                _u_boot_list_2_part_driver_2_dos
 .u_boot_list_2_part_driver_2_iso
                0x00052ed8       0x14 disk/built-in.o
                0x00052ed8                _u_boot_list_2_part_driver_2_iso
 .u_boot_list_2_part_driver_3
                0x00052eec        0x0 disk/built-in.o
 .u_boot_list_2_uclass_1
                0x00052eec        0x0 drivers/built-in.o
 .u_boot_list_2_uclass_2_disk
                0x00052eec       0x48 drivers/built-in.o
                0x00052eec                _u_boot_list_2_uclass_2_disk
 .u_boot_list_2_uclass_2_gpio
                0x00052f34       0x48 drivers/gpio/built-in.o
                0x00052f34                _u_boot_list_2_uclass_2_gpio
 .u_boot_list_2_uclass_2_root
                0x00052f7c       0x48 drivers/built-in.o
                0x00052f7c                _u_boot_list_2_uclass_2_root
 .u_boot_list_2_uclass_2_serial
                0x00052fc4       0x48 drivers/serial/built-in.o
                0x00052fc4                _u_boot_list_2_uclass_2_serial
 .u_boot_list_2_uclass_3
                0x0005300c        0x0 drivers/built-in.o
                0x0005300c                . = ALIGN (0x4)

.__efi_runtime_start
                0x0005300c        0x0
 *(.__efi_runtime_start)
 .__efi_runtime_start
                0x0005300c        0x0 arch/arm/lib/built-in.o

.efi_runtime    0x00053010       0xe0
 *(efi_runtime_text)
 efi_runtime_text
                0x00053010       0x18 lib/built-in.o
 *(efi_runtime_data)
 efi_runtime_data
                0x00053028       0xc8 lib/built-in.o
                0x00053028                systab
                0x000530a0                efi_runtime_services

.__efi_runtime_stop
                0x000530f0        0x0
 *(.__efi_runtime_stop)
 .__efi_runtime_stop
                0x000530f0        0x0 arch/arm/lib/built-in.o

.efi_runtime_rel_start
                0x000530f0        0x0
 *(.__efi_runtime_rel_start)
 .__efi_runtime_rel_start
                0x000530f0        0x0 arch/arm/lib/built-in.o

.efi_runtime_rel
                0x000530f0       0x90
 *(.relefi_runtime_text)
 *(.relefi_runtime_data)
 .relefi_runtime_data
                0x000530f0       0x90 arch/arm/cpu/arm1176/start.o

.efi_runtime_rel_stop
                0x00053180        0x0
 *(.__efi_runtime_rel_stop)
 .__efi_runtime_rel_stop
                0x00053180        0x0 arch/arm/lib/built-in.o
                0x00053180                . = ALIGN (0x4)

.image_copy_end
                0x00053180        0x0
 *(.__image_copy_end)
 .__image_copy_end
                0x00053180        0x0 arch/arm/lib/built-in.o

.rel_dyn_start  0x00053180        0x0
 *(.__rel_dyn_start)
 .__rel_dyn_start
                0x00053180        0x0 arch/arm/lib/built-in.o

.rel.dyn        0x00053180     0x8670
 *(.rel*)
 .rel.got       0x00000000        0x0 arch/arm/cpu/arm1176/start.o
 .rel.plt       0x00000000        0x0 arch/arm/cpu/arm1176/start.o
 .rel.iplt      0x00000000        0x0 arch/arm/cpu/arm1176/start.o
 .rel.text      0x00053180       0x18 arch/arm/cpu/arm1176/start.o
 .rel.vectors   0x00053198       0x38 arch/arm/cpu/arm1176/start.o
 .rel.text.relocate_vectors
                0x000531d0       0x20 arch/arm/cpu/arm1176/start.o
 .rel.text.boot_jump_linux
                0x000531f0       0x28 arch/arm/cpu/arm1176/start.o
 .rel.text.boot_prep_linux
                0x00053218       0x18 arch/arm/cpu/arm1176/start.o
 .rel.text.bootz_setup
                0x00053230       0x10 arch/arm/cpu/arm1176/start.o
 .rel.text.boot_prep_vxworks
                0x00053240       0x10 arch/arm/cpu/arm1176/start.o
 .rel.text.interrupt_init
                0x00053250        0x8 arch/arm/cpu/arm1176/start.o
 .rel.text.bad_mode
                0x00053258        0x8 arch/arm/cpu/arm1176/start.o
 .rel.text.show_regs
                0x00053260       0x60 arch/arm/cpu/arm1176/start.o
 .rel.text.do_undefined_instruction
                0x000532c0        0x8 arch/arm/cpu/arm1176/start.o
 .rel.text.do_software_interrupt
                0x000532c8        0x8 arch/arm/cpu/arm1176/start.o
 .rel.text.do_prefetch_abort
                0x000532d0        0x8 arch/arm/cpu/arm1176/start.o
 .rel.text.do_data_abort
                0x000532d8        0x8 arch/arm/cpu/arm1176/start.o
 .rel.text.do_not_used
                0x000532e0        0x8 arch/arm/cpu/arm1176/start.o
 .rel.text.do_fiq
                0x000532e8        0x8 arch/arm/cpu/arm1176/start.o
 .rel.text.do_irq
                0x000532f0        0x8 arch/arm/cpu/arm1176/start.o
 .rel.text.do_reset
                0x000532f8        0x8 arch/arm/cpu/arm1176/start.o
 .rel.text.enable_caches
                0x00000000        0x0 arch/arm/cpu/arm1176/start.o
 .rel.rodata    0x00053300      0x100 arch/arm/cpu/arm1176/start.o
 .rel.text.bcm2835_mbox_call_raw
                0x00053400       0x28 arch/arm/cpu/arm1176/start.o
 .rel.text.bcm2835_mbox_call_prop
                0x00053428       0x18 arch/arm/cpu/arm1176/start.o
 .rel.text.power_on_module
                0x00053440        0x8 arch/arm/cpu/arm1176/start.o
 .rel.text.dram_init
                0x00053448        0x8 arch/arm/cpu/arm1176/start.o
 .rel.text.misc_init_r
                0x00053450       0x88 arch/arm/cpu/arm1176/start.o
 .rel.text.board_init
                0x000534d8       0x58 arch/arm/cpu/arm1176/start.o
 .rel.text.board_mmc_init
                0x00053530        0x8 arch/arm/cpu/arm1176/start.o
 .rel.rodata.rpi_model_unknown
                0x00053538       0x10 arch/arm/cpu/arm1176/start.o
 .rel.rodata.rpi_models_old_scheme
                0x00053548      0x110 arch/arm/cpu/arm1176/start.o
 .rel.rodata.rpi_models_new_scheme
                0x00053658       0x30 arch/arm/cpu/arm1176/start.o
 .rel.u_boot_list_2_driver_info_2_bcm2835_serials
                0x00053688       0x10 arch/arm/cpu/arm1176/start.o
 .rel.u_boot_list_2_driver_info_2_bcm2835_gpios
                0x00053698       0x10 arch/arm/cpu/arm1176/start.o
 .rel.text.do_go
                0x000536a8       0x10 arch/arm/cpu/arm1176/start.o
 .rel.text.image_info
                0x000536b8       0x40 arch/arm/cpu/arm1176/start.o
 .rel.text.do_bootd
                0x000536f8        0x8 arch/arm/cpu/arm1176/start.o
 .rel.text.do_bootm
                0x00053700       0x18 arch/arm/cpu/arm1176/start.o
 .rel.text.do_iminfo
                0x00053718        0x8 arch/arm/cpu/arm1176/start.o
 .rel.text.bootm_maybe_autostart
                0x00053720       0x20 arch/arm/cpu/arm1176/start.o
 .rel.text.do_bootz
                0x00053740       0x10 arch/arm/cpu/arm1176/start.o
 .rel.text.do_help
                0x00053750       0x10 arch/arm/cpu/arm1176/start.o
 .rel.text.do_version
                0x00053760       0x20 arch/arm/cpu/arm1176/start.o
 .rel.text.source
                0x00053780       0x38 arch/arm/cpu/arm1176/start.o
 .rel.text.do_source
                0x000537b8        0x8 arch/arm/cpu/arm1176/start.o
 .rel.text.print_num
                0x000537c0        0x8 arch/arm/cpu/arm1176/start.o
 .rel.text.do_bdinfo
                0x000537c8       0xa0 arch/arm/cpu/arm1176/start.o
 .rel.text.bootefi_open_dp
                0x00053868        0x8 arch/arm/cpu/arm1176/start.o
 .rel.text.do_bootefi_exec
                0x00053870       0x40 arch/arm/cpu/arm1176/start.o
 .rel.text.do_bootefi
                0x000538b0       0x10 arch/arm/cpu/arm1176/start.o
 .rel.text.efi_set_bootdev
                0x000538c0       0x38 arch/arm/cpu/arm1176/start.o
 .rel.text.do_coninfo
                0x000538f8       0x28 arch/arm/cpu/arm1176/start.o
 .rel.text.do_echo
                0x00053920        0x8 arch/arm/cpu/arm1176/start.o
 .rel.text.valid_elf_image
                0x00053928       0x10 arch/arm/cpu/arm1176/start.o
 .rel.text.do_bootvx
                0x00053938       0xe0 arch/arm/cpu/arm1176/start.o
 .rel.text.do_bootelf
                0x00053a18       0x28 arch/arm/cpu/arm1176/start.o
 .rel.text.do_fat_fswrite
                0x00053a40       0x18 arch/arm/cpu/arm1176/start.o
 .rel.text.do_fat_fsinfo
                0x00053a58       0x10 arch/arm/cpu/arm1176/start.o
 .rel.text.fdt_valid
                0x00053a68       0x28 arch/arm/cpu/arm1176/start.o
 .rel.text.is_printable_string
                0x00053a90        0x8 arch/arm/cpu/arm1176/start.o
 .rel.text.print_data
                0x00053a98       0x58 arch/arm/cpu/arm1176/start.o
 .rel.text.set_working_fdt_addr
                0x00053af0       0x10 arch/arm/cpu/arm1176/start.o
 .rel.text.do_fdt
                0x00053b00      0x258 arch/arm/cpu/arm1176/start.o
 .rel.text.do_load_wrapper
                0x00053d58        0x8 arch/arm/cpu/arm1176/start.o
 .rel.text.gpio_get_description
                0x00053d60       0x18 arch/arm/cpu/arm1176/start.o
 .rel.text.do_gpio
                0x00053d78       0x50 arch/arm/cpu/arm1176/start.o
 .rel.text.binary_test
                0x00053dc8       0x78 arch/arm/cpu/arm1176/start.o
 .rel.text.do_itest
                0x00053e40       0x40 arch/arm/cpu/arm1176/start.o
 .rel.text.bin_data_init
                0x00053e80       0x18 arch/arm/cpu/arm1176/start.o
 .rel.text.k_data_restore
                0x00053e98       0x30 arch/arm/cpu/arm1176/start.o
 .rel.text.load_serial_ymodem
                0x00053ec8       0x20 arch/arm/cpu/arm1176/start.o
 .rel.text.bin_data_char
                0x00053ee8       0x10 arch/arm/cpu/arm1176/start.o
 .rel.text.chk1.constprop.1
                0x00053ef8        0x8 arch/arm/cpu/arm1176/start.o
 .rel.text.s1_sendpacket.constprop.2
                0x00053f00       0x18 arch/arm/cpu/arm1176/start.o
 .rel.text.load_serial
                0x00053f18       0x68 arch/arm/cpu/arm1176/start.o
 .rel.text.do_load_serial
                0x00053f80       0x30 arch/arm/cpu/arm1176/start.o
 .rel.text.do_load_serial_bin
                0x00053fb0      0x108 arch/arm/cpu/arm1176/start.o
 .rel.text.do_mem_mw
                0x000540b8        0x8 arch/arm/cpu/arm1176/start.o
 .rel.text.do_mem_base
                0x000540c0       0x10 arch/arm/cpu/arm1176/start.o
 .rel.text.do_mem_cmp
                0x000540d0       0x38 arch/arm/cpu/arm1176/start.o
 .rel.text.do_mem_crc
                0x00054108        0x8 arch/arm/cpu/arm1176/start.o
 .rel.text.do_mem_cp
                0x00054110       0x10 arch/arm/cpu/arm1176/start.o
 .rel.text.do_mem_md
                0x00054120       0x20 arch/arm/cpu/arm1176/start.o
 .rel.text.mod_mem.isra.2
                0x00054140       0x48 arch/arm/cpu/arm1176/start.o
 .rel.text.do_mii
                0x00054188      0x160 arch/arm/cpu/arm1176/start.o
 .rel.text.init_mmc_device
                0x000542e8        0x8 arch/arm/cpu/arm1176/start.o
 .rel.text.do_mmc_rescan
                0x000542f0        0x8 arch/arm/cpu/arm1176/start.o
 .rel.text.do_mmcinfo
                0x000542f8       0xf8 arch/arm/cpu/arm1176/start.o
 .rel.text.do_mmcops
                0x000543f0       0x18 arch/arm/cpu/arm1176/start.o
 .rel.text.do_mmc_hwpartition
                0x00054408       0xb0 arch/arm/cpu/arm1176/start.o
 .rel.text.do_mmc_dev
                0x000544b8       0x38 arch/arm/cpu/arm1176/start.o
 .rel.text.do_mmc_part
                0x000544f0       0x10 arch/arm/cpu/arm1176/start.o
 .rel.text.do_mmc_erase
                0x00054500       0x30 arch/arm/cpu/arm1176/start.o
 .rel.text.do_mmc_write
                0x00054530       0x30 arch/arm/cpu/arm1176/start.o
 .rel.text.do_mmc_read
                0x00054560       0x28 arch/arm/cpu/arm1176/start.o
 .rel.text.do_mmc_setdsr
                0x00054588       0x28 arch/arm/cpu/arm1176/start.o
 .rel.text.netboot_common
                0x000545b0       0x98 arch/arm/cpu/arm1176/start.o
 .rel.text.do_ping
                0x00054648       0x18 arch/arm/cpu/arm1176/start.o
 .rel.text.do_part_list
                0x00054660       0x28 arch/arm/cpu/arm1176/start.o
 .rel.text.do_part_start
                0x00054688       0x10 arch/arm/cpu/arm1176/start.o
 .rel.text.do_part_size
                0x00054698       0x10 arch/arm/cpu/arm1176/start.o
 .rel.text.do_part
                0x000546a8       0x28 arch/arm/cpu/arm1176/start.o
 .rel.text.from_env
                0x000546d0        0x8 arch/arm/cpu/arm1176/start.o
 .rel.text.label_print
                0x000546d8        0x8 arch/arm/cpu/arm1176/start.o
 .rel.text.get_string
                0x000546e0        0x8 arch/arm/cpu/arm1176/start.o
 .rel.text.get_token
                0x000546e8        0x8 arch/arm/cpu/arm1176/start.o
 .rel.text.parse_sliteral
                0x000546f0        0x8 arch/arm/cpu/arm1176/start.o
 .rel.text.parse_integer
                0x000546f8        0x8 arch/arm/cpu/arm1176/start.o
 .rel.text.do_get_any
                0x00054700       0x10 arch/arm/cpu/arm1176/start.o
 .rel.text.do_get_fat
                0x00054710       0x10 arch/arm/cpu/arm1176/start.o
 .rel.text.do_get_ext2
                0x00054720       0x10 arch/arm/cpu/arm1176/start.o
 .rel.text.do_pxe
                0x00054730       0x10 arch/arm/cpu/arm1176/start.o
 .rel.text.do_get_tftp
                0x00054740        0x8 arch/arm/cpu/arm1176/start.o
 .rel.text.format_mac_pxe.constprop.7
                0x00054748       0x10 arch/arm/cpu/arm1176/start.o
 .rel.text.get_relfile
                0x00054758       0x38 arch/arm/cpu/arm1176/start.o
 .rel.text.get_pxe_file
                0x00054790        0x8 arch/arm/cpu/arm1176/start.o
 .rel.text.get_pxelinux_path
                0x00054798       0x18 arch/arm/cpu/arm1176/start.o
 .rel.text.do_pxe_get
                0x000547b0       0x48 arch/arm/cpu/arm1176/start.o
 .rel.text.handle_include
                0x000547f8       0x10 arch/arm/cpu/arm1176/start.o
 .rel.text.parse_pxefile_top
                0x00054808      0x150 arch/arm/cpu/arm1176/start.o
 .rel.text.label_boot
                0x00054958       0xf8 arch/arm/cpu/arm1176/start.o
 .rel.text.handle_pxe_menu
                0x00054a50       0x18 arch/arm/cpu/arm1176/start.o
 .rel.text.do_sysboot
                0x00054a68       0x80 arch/arm/cpu/arm1176/start.o
 .rel.text.do_pxe_boot
                0x00054ae8       0x38 arch/arm/cpu/arm1176/start.o
 .rel.text.substitute
                0x00054b20        0x8 arch/arm/cpu/arm1176/start.o
 .rel.text.regex_sub
                0x00054b28       0x38 arch/arm/cpu/arm1176/start.o
 .rel.text.do_setexpr
                0x00054b60       0x18 arch/arm/cpu/arm1176/start.o
 .rel.text.do_test
                0x00054b78       0x70 arch/arm/cpu/arm1176/start.o
 .rel.text.usb_get_class_desc
                0x00054be8       0x50 arch/arm/cpu/arm1176/start.o
 .rel.text.do_usbboot
                0x00054c38        0x8 arch/arm/cpu/arm1176/start.o
 .rel.text.usb_display_class_sub
                0x00054c40       0xc8 arch/arm/cpu/arm1176/start.o
 .rel.text.usb_show_tree_graph
                0x00054d08       0x48 arch/arm/cpu/arm1176/start.o
 .rel.text.usb_display_string
                0x00054d50        0x8 arch/arm/cpu/arm1176/start.o
 .rel.text.usb_display_config
                0x00054d58       0xa8 arch/arm/cpu/arm1176/start.o
 .rel.text.do_usb_start
                0x00054e00       0x10 arch/arm/cpu/arm1176/start.o
 .rel.text.usb_display_desc.part.5
                0x00054e10       0x38 arch/arm/cpu/arm1176/start.o
 .rel.text.do_usb
                0x00054e48      0x178 arch/arm/cpu/arm1176/start.o
 .rel.text.do_imgextract
                0x00054fc0       0x90 arch/arm/cpu/arm1176/start.o
 .rel.text.do_env_delete
                0x00055050       0x10 arch/arm/cpu/arm1176/start.o
 .rel.text.do_env_exists
                0x00055060        0x8 arch/arm/cpu/arm1176/start.o
 .rel.text.env_print
                0x00055068       0x18 arch/arm/cpu/arm1176/start.o
 .rel.text.do_env_print
                0x00055080       0x10 arch/arm/cpu/arm1176/start.o
 .rel.text.do_env
                0x00055090        0x8 arch/arm/cpu/arm1176/start.o
 .rel.text.do_env_import
                0x00055098       0x58 arch/arm/cpu/arm1176/start.o
 .rel.text.do_env_default
                0x000550f0        0x8 arch/arm/cpu/arm1176/start.o
 .rel.text.do_env_save
                0x000550f8       0x10 arch/arm/cpu/arm1176/start.o
 .rel.text._do_env_set.isra.1
                0x00055108       0x30 arch/arm/cpu/arm1176/start.o
 .rel.text.get_env_id
                0x00055138        0x8 arch/arm/cpu/arm1176/start.o
 .rel.text.setenv
                0x00055140        0x8 arch/arm/cpu/arm1176/start.o
 .rel.text.setenv_hex
                0x00055148        0x8 arch/arm/cpu/arm1176/start.o
 .rel.text.do_env_export
                0x00055150       0x40 arch/arm/cpu/arm1176/start.o
 .rel.text.getenv_f
                0x00055190        0x8 arch/arm/cpu/arm1176/start.o
 .rel.text.getenv
                0x00055198        0x8 arch/arm/cpu/arm1176/start.o
 .rel.text.do_env_edit.part.3
                0x000551a0       0x18 arch/arm/cpu/arm1176/start.o
 .rel.text.common_diskboot
                0x000551b8       0x28 arch/arm/cpu/arm1176/start.o
 .rel.rodata.op_table
                0x000551e0       0x68 arch/arm/cpu/arm1176/start.o
 .rel.rodata.reg_4_desc_tbl
                0x00055248       0x60 arch/arm/cpu/arm1176/start.o
 .rel.rodata.desc_and_len_tbl
                0x000552a8       0x30 arch/arm/cpu/arm1176/start.o
 .rel.rodata.reg_5_desc_tbl
                0x000552d8       0x60 arch/arm/cpu/arm1176/start.o
 .rel.rodata.reg_2_desc_tbl
                0x00055338        0x8 arch/arm/cpu/arm1176/start.o
 .rel.rodata.reg_0_5_desc_tbl
                0x00055340       0x30 arch/arm/cpu/arm1176/start.o
 .rel.rodata.reg_3_desc_tbl
                0x00055370       0x18 arch/arm/cpu/arm1176/start.o
 .rel.rodata.reg_0_desc_tbl
                0x00055388       0x50 arch/arm/cpu/arm1176/start.o
 .rel.rodata.reg_1_desc_tbl
                0x000553d8       0x80 arch/arm/cpu/arm1176/start.o
 .rel.rodata.keywords
                0x00055458       0x90 arch/arm/cpu/arm1176/start.o
 .rel.rodata.op_adv
                0x000554e8       0x80 arch/arm/cpu/arm1176/start.o
 .rel.rodata.CSWTCH.28
                0x00055568       0x28 arch/arm/cpu/arm1176/start.o
 .rel.u_boot_list_2_cmd_2_go
                0x00055590       0x20 arch/arm/cpu/arm1176/start.o
 .rel.u_boot_list_2_cmd_2_reset
                0x000555b0       0x20 arch/arm/cpu/arm1176/start.o
 .rel.u_boot_list_2_cmd_2_iminfo
                0x000555d0       0x20 arch/arm/cpu/arm1176/start.o
 .rel.u_boot_list_2_cmd_2_bootz
                0x000555f0       0x20 arch/arm/cpu/arm1176/start.o
 .rel.u_boot_list_2_cmd_2_boot
                0x00055610       0x20 arch/arm/cpu/arm1176/start.o
 .rel.u_boot_list_2_cmd_2_bootd
                0x00055630       0x20 arch/arm/cpu/arm1176/start.o
 .rel.u_boot_list_2_cmd_2_bootm
                0x00055650       0x20 arch/arm/cpu/arm1176/start.o
 .rel.data.cmd_bootm_sub
                0x00055670       0xd8 arch/arm/cpu/arm1176/start.o
 .rel.u_boot_list_2_cmd_2_question_mark
                0x00055748       0x20 arch/arm/cpu/arm1176/start.o
 .rel.u_boot_list_2_cmd_2_help
                0x00055768       0x20 arch/arm/cpu/arm1176/start.o
 .rel.u_boot_list_2_cmd_2_version
                0x00055788       0x20 arch/arm/cpu/arm1176/start.o
 .rel.u_boot_list_2_cmd_2_source
                0x000557a8       0x20 arch/arm/cpu/arm1176/start.o
 .rel.u_boot_list_2_cmd_2_bdinfo
                0x000557c8       0x20 arch/arm/cpu/arm1176/start.o
 .rel.data.loaded_image_info_obj
                0x000557e8       0x28 arch/arm/cpu/arm1176/start.o
 .rel.u_boot_list_2_cmd_2_bootefi
                0x00055810       0x20 arch/arm/cpu/arm1176/start.o
 .rel.data.bootefi_device_obj
                0x00055830       0x18 arch/arm/cpu/arm1176/start.o
 .rel.data.loaded_image_info
                0x00055848       0x10 arch/arm/cpu/arm1176/start.o
 .rel.u_boot_list_2_cmd_2_coninfo
                0x00055858       0x20 arch/arm/cpu/arm1176/start.o
 .rel.u_boot_list_2_cmd_2_echo
                0x00055878       0x20 arch/arm/cpu/arm1176/start.o
 .rel.u_boot_list_2_cmd_2_bootelf
                0x00055898       0x20 arch/arm/cpu/arm1176/start.o
 .rel.u_boot_list_2_cmd_2_bootvx
                0x000558b8       0x20 arch/arm/cpu/arm1176/start.o
 .rel.u_boot_list_2_cmd_2_exit
                0x000558d8       0x20 arch/arm/cpu/arm1176/start.o
 .rel.u_boot_list_2_cmd_2_ext4load
                0x000558f8       0x20 arch/arm/cpu/arm1176/start.o
 .rel.u_boot_list_2_cmd_2_ext4ls
                0x00055918       0x20 arch/arm/cpu/arm1176/start.o
 .rel.u_boot_list_2_cmd_2_ext4size
                0x00055938       0x20 arch/arm/cpu/arm1176/start.o
 .rel.u_boot_list_2_cmd_2_ext2ls
                0x00055958       0x20 arch/arm/cpu/arm1176/start.o
 .rel.u_boot_list_2_cmd_2_ext2load
                0x00055978       0x20 arch/arm/cpu/arm1176/start.o
 .rel.u_boot_list_2_cmd_2_fatinfo
                0x00055998       0x20 arch/arm/cpu/arm1176/start.o
 .rel.u_boot_list_2_cmd_2_fatwrite
                0x000559b8       0x20 arch/arm/cpu/arm1176/start.o
 .rel.u_boot_list_2_cmd_2_fatload
                0x000559d8       0x20 arch/arm/cpu/arm1176/start.o
 .rel.u_boot_list_2_cmd_2_fatls
                0x000559f8       0x20 arch/arm/cpu/arm1176/start.o
 .rel.u_boot_list_2_cmd_2_fatsize
                0x00055a18       0x20 arch/arm/cpu/arm1176/start.o
 .rel.u_boot_list_2_cmd_2_fdt
                0x00055a38       0x20 arch/arm/cpu/arm1176/start.o
 .rel.u_boot_list_2_cmd_2_save
                0x00055a58       0x20 arch/arm/cpu/arm1176/start.o
 .rel.u_boot_list_2_cmd_2_size
                0x00055a78       0x20 arch/arm/cpu/arm1176/start.o
 .rel.u_boot_list_2_cmd_2_fstype
                0x00055a98       0x20 arch/arm/cpu/arm1176/start.o
 .rel.u_boot_list_2_cmd_2_ls
                0x00055ab8       0x20 arch/arm/cpu/arm1176/start.o
 .rel.u_boot_list_2_cmd_2_load
                0x00055ad8       0x20 arch/arm/cpu/arm1176/start.o
 .rel.u_boot_list_2_cmd_2_gpio
                0x00055af8       0x20 arch/arm/cpu/arm1176/start.o
 .rel.u_boot_list_2_cmd_2_itest
                0x00055b18       0x20 arch/arm/cpu/arm1176/start.o
 .rel.u_boot_list_2_cmd_2_loadb
                0x00055b38       0x20 arch/arm/cpu/arm1176/start.o
 .rel.u_boot_list_2_cmd_2_loadx
                0x00055b58       0x20 arch/arm/cpu/arm1176/start.o
 .rel.u_boot_list_2_cmd_2_loady
                0x00055b78       0x20 arch/arm/cpu/arm1176/start.o
 .rel.u_boot_list_2_cmd_2_loads
                0x00055b98       0x20 arch/arm/cpu/arm1176/start.o
 .rel.u_boot_list_2_cmd_2_base
                0x00055bb8       0x20 arch/arm/cpu/arm1176/start.o
 .rel.u_boot_list_2_cmd_2_cmp
                0x00055bd8       0x20 arch/arm/cpu/arm1176/start.o
 .rel.u_boot_list_2_cmd_2_nm
                0x00055bf8       0x20 arch/arm/cpu/arm1176/start.o
 .rel.u_boot_list_2_cmd_2_loop
                0x00055c18       0x20 arch/arm/cpu/arm1176/start.o
 .rel.u_boot_list_2_cmd_2_cp
                0x00055c38       0x20 arch/arm/cpu/arm1176/start.o
 .rel.u_boot_list_2_cmd_2_mm
                0x00055c58       0x20 arch/arm/cpu/arm1176/start.o
 .rel.u_boot_list_2_cmd_2_crc32
                0x00055c78       0x20 arch/arm/cpu/arm1176/start.o
 .rel.u_boot_list_2_cmd_2_md
                0x00055c98       0x20 arch/arm/cpu/arm1176/start.o
 .rel.u_boot_list_2_cmd_2_mw
                0x00055cb8       0x20 arch/arm/cpu/arm1176/start.o
 .rel.u_boot_list_2_cmd_2_mii
                0x00055cd8       0x20 arch/arm/cpu/arm1176/start.o
 .rel.u_boot_list_2_cmd_2_sleep
                0x00055cf8       0x20 arch/arm/cpu/arm1176/start.o
 .rel.u_boot_list_2_cmd_2_mmcinfo
                0x00055d18       0x20 arch/arm/cpu/arm1176/start.o
 .rel.data.cmd_mmc
                0x00055d38      0x140 arch/arm/cpu/arm1176/start.o
 .rel.u_boot_list_2_cmd_2_mmc
                0x00055e78       0x20 arch/arm/cpu/arm1176/start.o
 .rel.u_boot_list_2_cmd_2_ping
                0x00055e98       0x20 arch/arm/cpu/arm1176/start.o
 .rel.u_boot_list_2_cmd_2_dhcp
                0x00055eb8       0x20 arch/arm/cpu/arm1176/start.o
 .rel.u_boot_list_2_cmd_2_bootp
                0x00055ed8       0x20 arch/arm/cpu/arm1176/start.o
 .rel.u_boot_list_2_cmd_2_tftpboot
                0x00055ef8       0x20 arch/arm/cpu/arm1176/start.o
 .rel.u_boot_list_2_cmd_2_nfs
                0x00055f18       0x20 arch/arm/cpu/arm1176/start.o
 .rel.u_boot_list_2_cmd_2_part
                0x00055f38       0x20 arch/arm/cpu/arm1176/start.o
 .rel.u_boot_list_2_cmd_2_pxe
                0x00055f58       0x20 arch/arm/cpu/arm1176/start.o
 .rel.data.cmd_pxe_sub
                0x00055f78       0x40 arch/arm/cpu/arm1176/start.o
 .rel.u_boot_list_2_cmd_2_sysboot
                0x00055fb8       0x20 arch/arm/cpu/arm1176/start.o
 .rel.data.pxe_default_paths
                0x00055fd8       0x18 arch/arm/cpu/arm1176/start.o
 .rel.u_boot_list_2_cmd_2_setexpr
                0x00055ff0       0x20 arch/arm/cpu/arm1176/start.o
 .rel.u_boot_list_2_cmd_2_test
                0x00056010       0x20 arch/arm/cpu/arm1176/start.o
 .rel.u_boot_list_2_cmd_2_true
                0x00056030       0x18 arch/arm/cpu/arm1176/start.o
 .rel.u_boot_list_2_cmd_2_false
                0x00056048       0x18 arch/arm/cpu/arm1176/start.o
 .rel.u_boot_list_2_cmd_2_usb
                0x00056060       0x20 arch/arm/cpu/arm1176/start.o
 .rel.u_boot_list_2_cmd_2_usbboot
                0x00056080       0x20 arch/arm/cpu/arm1176/start.o
 .rel.u_boot_list_2_cmd_2_imxtract
                0x000560a0       0x20 arch/arm/cpu/arm1176/start.o
 .rel.u_boot_list_2_cmd_2_setenv
                0x000560c0       0x28 arch/arm/cpu/arm1176/start.o
 .rel.u_boot_list_2_cmd_2_env
                0x000560e8       0x20 arch/arm/cpu/arm1176/start.o
 .rel.u_boot_list_2_cmd_2_editenv
                0x00056108       0x28 arch/arm/cpu/arm1176/start.o
 .rel.u_boot_list_2_cmd_2_saveenv
                0x00056130       0x20 arch/arm/cpu/arm1176/start.o
 .rel.data.cmd_env_sub
                0x00056150      0x140 arch/arm/cpu/arm1176/start.o
 .rel.u_boot_list_2_cmd_2_printenv
                0x00056290       0x28 arch/arm/cpu/arm1176/start.o
 .rel.u_boot_list_2_cmd_2_run
                0x000562b8       0x28 arch/arm/cpu/arm1176/start.o
 .rel.text.main_loop
                0x000562e0       0x10 arch/arm/cpu/arm1176/start.o
 .rel.text.jumptable_init
                0x000562f0       0xb8 arch/arm/cpu/arm1176/start.o
 .rel.text.hash_lookup_algo
                0x00000000        0x0 arch/arm/cpu/arm1176/start.o
 .rel.text.hash_progressive_lookup_algo
                0x00000000        0x0 arch/arm/cpu/arm1176/start.o
 .rel.text.hash_command
                0x000563a8        0x8 arch/arm/cpu/arm1176/start.o
 .rel.text.mapset
                0x000563b0        0x8 arch/arm/cpu/arm1176/start.o
 .rel.text.syntax_err
                0x000563b8        0x8 arch/arm/cpu/arm1176/start.o
 .rel.text.do_showvar
                0x000563c0       0x20 arch/arm/cpu/arm1176/start.o
 .rel.text.xmalloc
                0x000563e0        0x8 arch/arm/cpu/arm1176/start.o
 .rel.text.xrealloc
                0x000563e8        0x8 arch/arm/cpu/arm1176/start.o
 .rel.text.done_word
                0x000563f0        0x8 arch/arm/cpu/arm1176/start.o
 .rel.text.is_assignment
                0x000563f8        0x8 arch/arm/cpu/arm1176/start.o
 .rel.text.file_get
                0x00056400       0x30 arch/arm/cpu/arm1176/start.o
 .rel.text.b_addqchr
                0x00056430        0x8 arch/arm/cpu/arm1176/start.o
 .rel.text.get_local_var
                0x00056438       0x20 arch/arm/cpu/arm1176/start.o
 .rel.text.set_local_var
                0x00056458       0x20 arch/arm/cpu/arm1176/start.o
 .rel.text.insert_var_value_sub
                0x00056478        0x8 arch/arm/cpu/arm1176/start.o
 .rel.text.unset_local_var
                0x00000000        0x0 arch/arm/cpu/arm1176/start.o
 .rel.text.parse_string_outer
                0x00056480       0x18 arch/arm/cpu/arm1176/start.o
 .rel.text.run_list_real
                0x00056498       0x40 arch/arm/cpu/arm1176/start.o
 .rel.text.parse_stream_outer
                0x000564d8       0x68 arch/arm/cpu/arm1176/start.o
 .rel.text.parse_file_outer
                0x00056540       0x10 arch/arm/cpu/arm1176/start.o
 .rel.text.u_boot_hush_start
                0x00056550       0x18 arch/arm/cpu/arm1176/start.o
 .rel.text.bootdelay_process
                0x00056568       0x18 arch/arm/cpu/arm1176/start.o
 .rel.text.autoboot_command
                0x00056580       0x18 arch/arm/cpu/arm1176/start.o
 .rel.text.setup_mon_len
                0x00056598       0x10 arch/arm/cpu/arm1176/start.o
 .rel.text.announce_dram_init
                0x000565a8        0x8 arch/arm/cpu/arm1176/start.o
 .rel.text.init_baud_rate
                0x000565b0        0x8 arch/arm/cpu/arm1176/start.o
 .rel.text.show_dram_config
                0x000565b8        0x8 arch/arm/cpu/arm1176/start.o
 .rel.text.board_init_f
                0x000565c0        0x8 arch/arm/cpu/arm1176/start.o
 .rel.text.initr_net
                0x000565c8        0x8 arch/arm/cpu/arm1176/start.o
 .rel.text.initr_ethaddr
                0x000565d0        0x8 arch/arm/cpu/arm1176/start.o
 .rel.text.initr_env
                0x000565d8       0x10 arch/arm/cpu/arm1176/start.o
 .rel.text.initr_mmc
                0x000565e8        0x8 arch/arm/cpu/arm1176/start.o
 .rel.text.initr_reloc_global_data
                0x000565f0       0x18 arch/arm/cpu/arm1176/start.o
 .rel.text.board_init_r
                0x00056608        0x8 arch/arm/cpu/arm1176/start.o
 .rel.text.bootm_find_images
                0x00056610       0x18 arch/arm/cpu/arm1176/start.o
 .rel.text.bootm_decomp_image
                0x00056628       0x48 arch/arm/cpu/arm1176/start.o
 .rel.text.do_bootm_states
                0x00056670       0xb0 arch/arm/cpu/arm1176/start.o
 .rel.text.do_bootm_rtems
                0x00056720        0x8 arch/arm/cpu/arm1176/start.o
 .rel.text.do_bootm_plan9
                0x00056728       0x18 arch/arm/cpu/arm1176/start.o
 .rel.text.do_bootm_standalone
                0x00056740       0x18 arch/arm/cpu/arm1176/start.o
 .rel.text.do_bootm_qnxelf
                0x00056758        0x8 arch/arm/cpu/arm1176/start.o
 .rel.text.do_bootm_netbsd
                0x00056760       0x18 arch/arm/cpu/arm1176/start.o
 .rel.text.do_bootvx_fdt
                0x00056778       0x38 arch/arm/cpu/arm1176/start.o
 .rel.text.bootm_os_get_boot_func
                0x000567b0        0x8 arch/arm/cpu/arm1176/start.o
 .rel.text.regex_callback
                0x000567b8       0x10 arch/arm/cpu/arm1176/start.o
 .rel.text.env_attr_lookup
                0x000567c8        0x8 arch/arm/cpu/arm1176/start.o
 .rel.text.on_callbacks
                0x000567d0       0x20 arch/arm/cpu/arm1176/start.o
 .rel.text.set_callback
                0x000567f0       0x18 arch/arm/cpu/arm1176/start.o
 .rel.text.env_callback_init
                0x00056808       0x30 arch/arm/cpu/arm1176/start.o
 .rel.text.skip_num
                0x00056838        0x8 arch/arm/cpu/arm1176/start.o
 .rel.text.on_flags
                0x00056840       0x20 arch/arm/cpu/arm1176/start.o
 .rel.text.env_flags_parse_vartype
                0x00056860       0x10 arch/arm/cpu/arm1176/start.o
 .rel.text.env_flags_parse_varaccess
                0x00056870       0x10 arch/arm/cpu/arm1176/start.o
 .rel.text.set_flags
                0x00056880       0x10 arch/arm/cpu/arm1176/start.o
 .rel.text.env_flags_parse_varaccess_from_binflags
                0x00000000        0x0 arch/arm/cpu/arm1176/start.o
 .rel.text.env_flags_init
                0x00056890       0x30 arch/arm/cpu/arm1176/start.o
 .rel.text.env_flags_validate
                0x000568c0       0x68 arch/arm/cpu/arm1176/start.o
 .rel.text.env_init
                0x00056928        0x8 arch/arm/cpu/arm1176/start.o
 .rel.text.saveenv
                0x00056930       0x30 arch/arm/cpu/arm1176/start.o
 .rel.text.env_relocate_spec
                0x00056960       0x28 arch/arm/cpu/arm1176/start.o
 .rel.text.of_bus_default_count_cells
                0x00056988        0x8 arch/arm/cpu/arm1176/start.o
 .rel.text.fdt_find_or_add_subnode
                0x00056990       0x10 arch/arm/cpu/arm1176/start.o
 .rel.text.fdt_root
                0x000569a0       0x20 arch/arm/cpu/arm1176/start.o
 .rel.text.fdt_initrd
                0x000569c0       0x30 arch/arm/cpu/arm1176/start.o
 .rel.text.fdt_chosen
                0x000569f0       0x20 arch/arm/cpu/arm1176/start.o
 .rel.text.do_fixup_by_path
                0x00056a10        0x8 arch/arm/cpu/arm1176/start.o
 .rel.text.fdt_fixup_memory_banks
                0x00056a18       0x38 arch/arm/cpu/arm1176/start.o
 .rel.text.fdt_fixup_ethernet
                0x00056a50       0x30 arch/arm/cpu/arm1176/start.o
 .rel.text.fdt_del_node_and_alias
                0x00000000        0x0 arch/arm/cpu/arm1176/start.o
 .rel.text.fdt_translate_address
                0x00000000        0x0 arch/arm/cpu/arm1176/start.o
 .rel.text.fdt_node_offset_by_compat_reg
                0x00000000        0x0 arch/arm/cpu/arm1176/start.o
 .rel.text.fdt_set_phandle
                0x00000000        0x0 arch/arm/cpu/arm1176/start.o
 .rel.text.fdt_create_phandle
                0x00000000        0x0 arch/arm/cpu/arm1176/start.o
 .rel.text.fdt_set_node_status
                0x00000000        0x0 arch/arm/cpu/arm1176/start.o
 .rel.text.fdt_add_edid
                0x00000000        0x0 arch/arm/cpu/arm1176/start.o
 .rel.text.fdt_verify_alias_address
                0x00000000        0x0 arch/arm/cpu/arm1176/start.o
 .rel.text.fdt_get_base_address
                0x00000000        0x0 arch/arm/cpu/arm1176/start.o
 .rel.text.fdt_read_range
                0x00000000        0x0 arch/arm/cpu/arm1176/start.o
 .rel.text.fdt_setup_simplefb_node
                0x00056a80       0x40 arch/arm/cpu/arm1176/start.o
 .rel.text.fdt_fixup_display
                0x00000000        0x0 arch/arm/cpu/arm1176/start.o
 .rel.text.miiphy_get_dev_by_name
                0x00056ac0       0x10 arch/arm/cpu/arm1176/start.o
 .rel.text.miiphy_init
                0x00056ad0       0x10 arch/arm/cpu/arm1176/start.o
 .rel.text.miiphy_register
                0x00000000        0x0 arch/arm/cpu/arm1176/start.o
 .rel.text.mdio_register
                0x00000000        0x0 arch/arm/cpu/arm1176/start.o
 .rel.text.mdio_unregister
                0x00000000        0x0 arch/arm/cpu/arm1176/start.o
 .rel.text.mdio_list_devices
                0x00000000        0x0 arch/arm/cpu/arm1176/start.o
 .rel.text.miiphy_set_current_dev
                0x00056ae0       0x10 arch/arm/cpu/arm1176/start.o
 .rel.text.miiphy_get_active_dev
                0x00056af0        0x8 arch/arm/cpu/arm1176/start.o
 .rel.text.mdio_get_current_dev
                0x00000000        0x0 arch/arm/cpu/arm1176/start.o
 .rel.text.mdio_phydev_for_ethname
                0x00000000        0x0 arch/arm/cpu/arm1176/start.o
 .rel.text.miiphy_get_current_dev
                0x00056af8        0x8 arch/arm/cpu/arm1176/start.o
 .rel.text.miiphy_listdev
                0x00056b00       0x30 arch/arm/cpu/arm1176/start.o
 .rel.text.miiphy_reset
                0x00000000        0x0 arch/arm/cpu/arm1176/start.o
 .rel.text.miiphy_speed
                0x00056b30       0x18 arch/arm/cpu/arm1176/start.o
 .rel.text.miiphy_duplex
                0x00056b48       0x18 arch/arm/cpu/arm1176/start.o
 .rel.text.usb_stop
                0x00056b60       0x18 arch/arm/cpu/arm1176/start.o
 .rel.text.usb_detect_change
                0x00000000        0x0 arch/arm/cpu/arm1176/start.o
 .rel.text.usb_disable_asynch
                0x00056b78        0x8 arch/arm/cpu/arm1176/start.o
 .rel.text.usb_control_msg
                0x00056b80        0x8 arch/arm/cpu/arm1176/start.o
 .rel.text.get_descriptor_len
                0x00056b88       0x10 arch/arm/cpu/arm1176/start.o
 .rel.text.usb_string_sub
                0x00056b98        0x8 arch/arm/cpu/arm1176/start.o
 .rel.text.usb_get_configuration_len
                0x00056ba0       0x10 arch/arm/cpu/arm1176/start.o
 .rel.text.usb_set_interface
                0x00056bb0        0x8 arch/arm/cpu/arm1176/start.o
 .rel.text.usb_get_dev_index
                0x00056bb8        0x8 arch/arm/cpu/arm1176/start.o
 .rel.text.usb_alloc_new_device
                0x00056bc0       0x18 arch/arm/cpu/arm1176/start.o
 .rel.text.usb_free_device
                0x00056bd8       0x10 arch/arm/cpu/arm1176/start.o
 .rel.text.usb_select_config
                0x00056be8       0x70 arch/arm/cpu/arm1176/start.o
 .rel.text.usb_setup_device
                0x00056c58       0x18 arch/arm/cpu/arm1176/start.o
 .rel.text.usb_init
                0x00056c70       0x58 arch/arm/cpu/arm1176/start.o
 .rel.text.usb_find_usb2_hub_address_port
                0x00056cc8        0x8 arch/arm/cpu/arm1176/start.o
 .rel.text.usb_hub_reset
                0x00056cd0       0x10 arch/arm/cpu/arm1176/start.o
 .rel.text.usb_hub_port_connect_change
                0x00056ce0       0x10 arch/arm/cpu/arm1176/start.o
 .rel.text.usb_hub_configure
                0x00056cf0       0x48 arch/arm/cpu/arm1176/start.o
 .rel.text.usb_stor_BBB_transport
                0x00056d38       0x10 arch/arm/cpu/arm1176/start.o
 .rel.text.usb_stor_CB_comdat
                0x00056d48        0x8 arch/arm/cpu/arm1176/start.o
 .rel.text.usb_stor_CBI_get_status.isra.0
                0x00056d50        0x8 arch/arm/cpu/arm1176/start.o
 .rel.text.usb_stor_CB_transport
                0x00056d58       0x10 arch/arm/cpu/arm1176/start.o
 .rel.text.usb_request_sense.constprop.7
                0x00056d68        0x8 arch/arm/cpu/arm1176/start.o
 .rel.text.usb_stor_read
                0x00056d70       0x10 arch/arm/cpu/arm1176/start.o
 .rel.text.usb_stor_write
                0x00056d80       0x10 arch/arm/cpu/arm1176/start.o
 .rel.text.usb_stor_get_dev
                0x00056d90       0x10 arch/arm/cpu/arm1176/start.o
 .rel.text.usb_stor_info
                0x00056da0       0x20 arch/arm/cpu/arm1176/start.o
 .rel.text.usb_stor_reset
                0x00000000        0x0 arch/arm/cpu/arm1176/start.o
 .rel.text.usb_storage_probe
                0x00056dc0       0x38 arch/arm/cpu/arm1176/start.o
 .rel.text.usb_stor_get_info
                0x00056df8       0x20 arch/arm/cpu/arm1176/start.o
 .rel.text.usb_stor_scan
                0x00056e18       0x40 arch/arm/cpu/arm1176/start.o
 .rel.text.iomux_printdevs
                0x00000000        0x0 arch/arm/cpu/arm1176/start.o
 .rel.text.iomux_doenv
                0x00056e58       0x10 arch/arm/cpu/arm1176/start.o
 .rel.text.lcd_set_flush_dcache
                0x00056e68        0x8 arch/arm/cpu/arm1176/start.o
 .rel.text.lcd_get_size
                0x00056e70       0x10 arch/arm/cpu/arm1176/start.o
 .rel.text.lcd_sync
                0x00056e80       0x10 arch/arm/cpu/arm1176/start.o
 .rel.text.lcd_clear
                0x00056e90       0x38 arch/arm/cpu/arm1176/start.o
 .rel.text.drv_lcd_init
                0x00056ec8       0x30 arch/arm/cpu/arm1176/start.o
 .rel.text.lcd_getfgcolor
                0x00056ef8        0x8 arch/arm/cpu/arm1176/start.o
 .rel.text.lcd_getbgcolor
                0x00056f00        0x8 arch/arm/cpu/arm1176/start.o
 .rel.text.lcd_get_pixel_width
                0x00056f08        0x8 arch/arm/cpu/arm1176/start.o
 .rel.text.lcd_get_pixel_height
                0x00056f10        0x8 arch/arm/cpu/arm1176/start.o
 .rel.text.lcd_putc_xy0
                0x00056f18        0x8 arch/arm/cpu/arm1176/start.o
 .rel.text.lcd_set_col
                0x00056f20        0x8 arch/arm/cpu/arm1176/start.o
 .rel.text.lcd_set_row
                0x00056f28        0x8 arch/arm/cpu/arm1176/start.o
 .rel.text.lcd_position_cursor
                0x00056f30        0x8 arch/arm/cpu/arm1176/start.o
 .rel.text.lcd_get_screen_rows
                0x00000000        0x0 arch/arm/cpu/arm1176/start.o
 .rel.text.lcd_get_screen_columns
                0x00000000        0x0 arch/arm/cpu/arm1176/start.o
 .rel.text.lcd_init_console
                0x00056f38       0x20 arch/arm/cpu/arm1176/start.o
 .rel.text.lcd_putc
                0x00056f58       0x40 arch/arm/cpu/arm1176/start.o
 .rel.text.lcd_puts
                0x00056f98        0x8 arch/arm/cpu/arm1176/start.o
 .rel.text.lcd_dt_simplefb_configure_node
                0x00056fa0        0x8 arch/arm/cpu/arm1176/start.o
 .rel.text.lcd_dt_simplefb_add_node
                0x00056fa8       0x28 arch/arm/cpu/arm1176/start.o
 .rel.text.lcd_dt_simplefb_enable_existing_node
                0x00000000        0x0 arch/arm/cpu/arm1176/start.o
 .rel.text.menu_get_choice
                0x00056fd0       0x18 arch/arm/cpu/arm1176/start.o
 .rel.text.usb_kbd_translate.part.0
                0x00056fe8       0x20 arch/arm/cpu/arm1176/start.o
 .rel.text.usb_kbd_getc
                0x00057008        0x8 arch/arm/cpu/arm1176/start.o
 .rel.text.usb_kbd_testc
                0x00057010       0x18 arch/arm/cpu/arm1176/start.o
 .rel.text.drv_usb_kbd_init
                0x00057028       0x38 arch/arm/cpu/arm1176/start.o
 .rel.text.usb_kbd_deregister
                0x00057060       0x10 arch/arm/cpu/arm1176/start.o
 .rel.text.env_get_addr
                0x00057070        0x8 arch/arm/cpu/arm1176/start.o
 .rel.text.env_get_char
                0x00057078        0x8 arch/arm/cpu/arm1176/start.o
 .rel.text.set_default_env
                0x00057080       0x40 arch/arm/cpu/arm1176/start.o
 .rel.text.set_default_vars
                0x000570c0       0x10 arch/arm/cpu/arm1176/start.o
 .rel.text.env_import
                0x000570d0       0x38 arch/arm/cpu/arm1176/start.o
 .rel.text.env_export
                0x00057108       0x28 arch/arm/cpu/arm1176/start.o
 .rel.text.env_relocate
                0x00057130        0x8 arch/arm/cpu/arm1176/start.o
 .rel.text.env_complete
                0x00057138       0x18 arch/arm/cpu/arm1176/start.o
 .rel.text.console_tstc
                0x00057150       0x20 arch/arm/cpu/arm1176/start.o
 .rel.text.console_putc
                0x00057170       0x10 arch/arm/cpu/arm1176/start.o
 .rel.text.console_puts
                0x00057180       0x10 arch/arm/cpu/arm1176/start.o
 .rel.text.on_console
                0x00057190       0x20 arch/arm/cpu/arm1176/start.o
 .rel.text.fgetc
                0x000571b0        0x8 arch/arm/cpu/arm1176/start.o
 .rel.text.ctrlc
                0x000571b8       0x10 arch/arm/cpu/arm1176/start.o
 .rel.text.confirm_yesno
                0x00000000        0x0 arch/arm/cpu/arm1176/start.o
 .rel.text.disable_ctrlc
                0x00000000        0x0 arch/arm/cpu/arm1176/start.o
 .rel.text.had_ctrlc
                0x000571c8        0x8 arch/arm/cpu/arm1176/start.o
 .rel.text.clear_ctrlc
                0x000571d0        0x8 arch/arm/cpu/arm1176/start.o
 .rel.text.console_assign
                0x000571d8       0x30 arch/arm/cpu/arm1176/start.o
 .rel.text.stdio_print_current_devices
                0x00057208       0x40 arch/arm/cpu/arm1176/start.o
 .rel.text.console_init_r
                0x00057248       0x48 arch/arm/cpu/arm1176/start.o
 .rel.text.sbrk
                0x00057290       0x18 arch/arm/cpu/arm1176/start.o
 .rel.text.mem_malloc_init
                0x000572a8       0x18 arch/arm/cpu/arm1176/start.o
 .rel.text.malloc_trim
                0x000572c0       0x18 arch/arm/cpu/arm1176/start.o
 .rel.text.free
                0x000572d8       0x18 arch/arm/cpu/arm1176/start.o
 .rel.text.malloc
                0x000572f0       0x40 arch/arm/cpu/arm1176/start.o
 .rel.text.calloc
                0x00057330        0x8 arch/arm/cpu/arm1176/start.o
 .rel.text.realloc
                0x00057338       0x10 arch/arm/cpu/arm1176/start.o
 .rel.text.mallopt
                0x00000000        0x0 arch/arm/cpu/arm1176/start.o
 .rel.text.on_loadaddr
                0x00057348        0x8 arch/arm/cpu/arm1176/start.o
 .rel.text.getenv_bootm_low
                0x00057350        0x8 arch/arm/cpu/arm1176/start.o
 .rel.text.getenv_bootm_size
                0x00057358       0x10 arch/arm/cpu/arm1176/start.o
 .rel.text.getenv_bootm_mapsize
                0x00057368        0x8 arch/arm/cpu/arm1176/start.o
 .rel.text.genimg_print_size
                0x00057370       0x10 arch/arm/cpu/arm1176/start.o
 .rel.text.genimg_get_short_name
                0x00000000        0x0 arch/arm/cpu/arm1176/start.o
 .rel.text.genimg_get_os_name
                0x00057380       0x10 arch/arm/cpu/arm1176/start.o
 .rel.text.genimg_get_arch_name
                0x00057390       0x10 arch/arm/cpu/arm1176/start.o
 .rel.text.genimg_get_type_name
                0x000573a0       0x10 arch/arm/cpu/arm1176/start.o
 .rel.text.genimg_get_type_short_name
                0x00000000        0x0 arch/arm/cpu/arm1176/start.o
 .rel.text.genimg_get_comp_name
                0x000573b0       0x10 arch/arm/cpu/arm1176/start.o
 .rel.text.image_print_contents
                0x000573c0       0x50 arch/arm/cpu/arm1176/start.o
 .rel.text.genimg_get_comp_short_name
                0x00000000        0x0 arch/arm/cpu/arm1176/start.o
 .rel.text.genimg_get_os_short_name
                0x00000000        0x0 arch/arm/cpu/arm1176/start.o
 .rel.text.genimg_get_arch_short_name
                0x00000000        0x0 arch/arm/cpu/arm1176/start.o
 .rel.text.genimg_get_os_id
                0x00000000        0x0 arch/arm/cpu/arm1176/start.o
 .rel.text.genimg_get_arch_id
                0x00000000        0x0 arch/arm/cpu/arm1176/start.o
 .rel.text.genimg_get_type_id
                0x00000000        0x0 arch/arm/cpu/arm1176/start.o
 .rel.text.genimg_get_comp_id
                0x00000000        0x0 arch/arm/cpu/arm1176/start.o
 .rel.text.genimg_get_kernel_addr_fit
                0x00057410        0x8 arch/arm/cpu/arm1176/start.o
 .rel.text.boot_get_ramdisk
                0x00057418       0x50 arch/arm/cpu/arm1176/start.o
 .rel.text.boot_ramdisk_high
                0x00057468       0x20 arch/arm/cpu/arm1176/start.o
 .rel.text.fdt_error
                0x00057488       0x10 arch/arm/cpu/arm1176/start.o
 .rel.text.boot_fdt_add_mem_rsv_regions
                0x00057498        0x8 arch/arm/cpu/arm1176/start.o
 .rel.text.boot_relocate_fdt
                0x000574a0       0x40 arch/arm/cpu/arm1176/start.o
 .rel.text.boot_get_fdt
                0x000574e0       0x80 arch/arm/cpu/arm1176/start.o
 .rel.text.image_setup_libfdt
                0x00057560       0x28 arch/arm/cpu/arm1176/start.o
 .rel.text.stdio_get_list
                0x00057588        0x8 arch/arm/cpu/arm1176/start.o
 .rel.text.stdio_get_by_name
                0x00057590        0x8 arch/arm/cpu/arm1176/start.o
 .rel.text.stdio_register_dev
                0x00057598        0x8 arch/arm/cpu/arm1176/start.o
 .rel.text.stdio_deregister_dev
                0x000575a0       0x20 arch/arm/cpu/arm1176/start.o
 .rel.text.stdio_init_tables
                0x000575c0        0x8 arch/arm/cpu/arm1176/start.o
 .rel.text.stdio_add_devices
                0x000575c8       0x48 arch/arm/cpu/arm1176/start.o
 .rel.text.cli_simple_parse_line
                0x00000000        0x0 arch/arm/cpu/arm1176/start.o
 .rel.text.cli_simple_run_command
                0x00000000        0x0 arch/arm/cpu/arm1176/start.o
 .rel.text.cli_simple_loop
                0x00000000        0x0 arch/arm/cpu/arm1176/start.o
 .rel.text.do_run
                0x00057610        0x8 arch/arm/cpu/arm1176/start.o
 .rel.text.delete_char.part.0
                0x00057618       0x10 arch/arm/cpu/arm1176/start.o
 .rel.text.cread_add_char
                0x00057628        0x8 arch/arm/cpu/arm1176/start.o
 .rel.text.cli_readline_into_buffer
                0x00057630       0xb0 arch/arm/cpu/arm1176/start.o
 .rel.text.cli_readline
                0x000576e0        0x8 arch/arm/cpu/arm1176/start.o
 .rel.text.find_cmd
                0x000576e8       0x10 arch/arm/cpu/arm1176/start.o
 .rel.text.cmd_usage
                0x000576f8       0x18 arch/arm/cpu/arm1176/start.o
 .rel.text._do_help
                0x00057710       0x10 arch/arm/cpu/arm1176/start.o
 .rel.text.var_complete
                0x00057720       0x10 arch/arm/cpu/arm1176/start.o
 .rel.text.cmd_auto_complete
                0x00057730       0x48 arch/arm/cpu/arm1176/start.o
 .rel.text.cmd_get_data_size
                0x00057778        0x8 arch/arm/cpu/arm1176/start.o
 .rel.text.cmd_process
                0x00057780       0x18 arch/arm/cpu/arm1176/start.o
 .rel.text.cmd_process_error
                0x00057798        0x8 arch/arm/cpu/arm1176/start.o
 .rel.text.srec_decode
                0x000577a0       0x50 arch/arm/cpu/arm1176/start.o
 .rel.text.xyzModem_get_hdr
                0x000577f0       0x28 arch/arm/cpu/arm1176/start.o
 .rel.text.xyzModem_stream_open
                0x00057818       0x10 arch/arm/cpu/arm1176/start.o
 .rel.text.xyzModem_stream_read
                0x00057828        0x8 arch/arm/cpu/arm1176/start.o
 .rel.text.xyzModem_stream_close
                0x00057830       0x20 arch/arm/cpu/arm1176/start.o
 .rel.text.xyzModem_stream_terminate
                0x00057850        0x8 arch/arm/cpu/arm1176/start.o
 .rel.text.xyzModem_error
                0x00057858       0x10 arch/arm/cpu/arm1176/start.o
 .rel.rodata.boot_os
                0x00057868       0x38 arch/arm/cpu/arm1176/start.o
 .rel.rodata.uimage_comp
                0x000578a0       0x70 arch/arm/cpu/arm1176/start.o
 .rel.rodata.uimage_os
                0x00057910       0x98 arch/arm/cpu/arm1176/start.o
 .rel.rodata.uimage_arch
                0x000579a8      0x188 arch/arm/cpu/arm1176/start.o
 .rel.rodata.uimage_type
                0x00057b30      0x1a8 arch/arm/cpu/arm1176/start.o
 .rel.rodata.CSWTCH.26
                0x00057cd8       0x40 arch/arm/cpu/arm1176/start.o
 .rel.data.hash_algo
                0x00000000        0x0 arch/arm/cpu/arm1176/start.o
 .rel.data.reserved_list
                0x00057d18       0x58 arch/arm/cpu/arm1176/start.o
 .rel.u_boot_list_2_cmd_2_showvar
                0x00057d70       0x20 arch/arm/cpu/arm1176/start.o
 .rel.data.init_sequence_f
                0x00057d90      0x118 arch/arm/cpu/arm1176/start.o
 .rel.data.init_sequence_r
                0x00057ea8       0xe0 arch/arm/cpu/arm1176/start.o
 .rel.u_boot_list_2_env_clbk_2_callbacks
                0x00057f88       0x10 arch/arm/cpu/arm1176/start.o
 .rel.u_boot_list_2_env_clbk_2_flags
                0x00057f98       0x10 arch/arm/cpu/arm1176/start.o
 .rel.data.env_name_spec
                0x00057fa8        0x8 arch/arm/cpu/arm1176/start.o
 .rel.data.of_busses
                0x00000000        0x0 arch/arm/cpu/arm1176/start.o
 .rel.data.usb_scan_list
                0x00057fb0       0x10 arch/arm/cpu/arm1176/start.o
 .rel.u_boot_list_2_cmd_2_cls
                0x00057fc0       0x20 arch/arm/cpu/arm1176/start.o
 .rel.u_boot_list_2_cmd_2_lcdputs
                0x00057fe0       0x20 arch/arm/cpu/arm1176/start.o
 .rel.u_boot_list_2_cmd_2_setcurs
                0x00058000       0x20 arch/arm/cpu/arm1176/start.o
 .rel.data.env_htab
                0x00058020        0x8 arch/arm/cpu/arm1176/start.o
 .rel.u_boot_list_2_env_clbk_2_console
                0x00058028       0x10 arch/arm/cpu/arm1176/start.o
 .rel.data.av_  0x00058038      0x800 arch/arm/cpu/arm1176/start.o
 .rel.u_boot_list_2_env_clbk_2_loadaddr
                0x00058838       0x10 arch/arm/cpu/arm1176/start.o
 .rel.data.stdio_names
                0x00058848       0x18 arch/arm/cpu/arm1176/start.o
 .rel.text.get_dev_hwpart
                0x00058860        0x8 arch/arm/cpu/arm1176/start.o
 .rel.text.dev_print
                0x00058868      0x110 arch/arm/cpu/arm1176/start.o
 .rel.text.part_init
                0x00058978       0x10 arch/arm/cpu/arm1176/start.o
 .rel.text.part_print
                0x00058988       0xb8 arch/arm/cpu/arm1176/start.o
 .rel.text.part_get_info
                0x00058a40       0x10 arch/arm/cpu/arm1176/start.o
 .rel.text.blk_get_device_by_str
                0x00058a50       0x18 arch/arm/cpu/arm1176/start.o
 .rel.text.blk_get_device_part_str
                0x00058a68       0x60 arch/arm/cpu/arm1176/start.o
 .rel.text.test_block_type
                0x00058ac8       0x10 arch/arm/cpu/arm1176/start.o
 .rel.text.print_partition_extended
                0x00058ad8       0x30 arch/arm/cpu/arm1176/start.o
 .rel.text.part_print_dos
                0x00058b08        0x8 arch/arm/cpu/arm1176/start.o
 .rel.text.part_get_info_extended
                0x00058b10       0x88 arch/arm/cpu/arm1176/start.o
 .rel.text.part_get_info_iso_verb
                0x00058b98       0xf8 arch/arm/cpu/arm1176/start.o
 .rel.text.part_print_iso
                0x00058c90       0x18 arch/arm/cpu/arm1176/start.o
 .rel.text.print_efiname
                0x00058ca8       0x10 arch/arm/cpu/arm1176/start.o
 .rel.text.validate_gpt_entries
                0x00058cb8       0x10 arch/arm/cpu/arm1176/start.o
 .rel.text.validate_gpt_header
                0x00058cc8       0x30 arch/arm/cpu/arm1176/start.o
 .rel.text.set_protective_mbr
                0x00000000        0x0 arch/arm/cpu/arm1176/start.o
 .rel.text.is_gpt_valid
                0x00058cf8       0x38 arch/arm/cpu/arm1176/start.o
 .rel.text.is_pte_valid
                0x00058d30       0x10 arch/arm/cpu/arm1176/start.o
 .rel.text.part_get_info_efi
                0x00058d40       0x40 arch/arm/cpu/arm1176/start.o
 .rel.text.part_print_efi
                0x00058d80       0x60 arch/arm/cpu/arm1176/start.o
 .rel.text.write_gpt_table
                0x00000000        0x0 arch/arm/cpu/arm1176/start.o
 .rel.text.gpt_fill_pte
                0x00000000        0x0 arch/arm/cpu/arm1176/start.o
 .rel.text.gpt_restore
                0x00000000        0x0 arch/arm/cpu/arm1176/start.o
 .rel.text.gpt_verify_headers
                0x00000000        0x0 arch/arm/cpu/arm1176/start.o
 .rel.text.gpt_verify_partitions
                0x00000000        0x0 arch/arm/cpu/arm1176/start.o
 .rel.text.write_mbr_and_gpt_partitions
                0x00000000        0x0 arch/arm/cpu/arm1176/start.o
 .rel.rodata.block_drvr
                0x00058de0       0x28 arch/arm/cpu/arm1176/start.o
 .rel.u_boot_list_2_part_driver_2_dos
                0x00058e08       0x20 arch/arm/cpu/arm1176/start.o
 .rel.u_boot_list_2_part_driver_2_iso
                0x00058e28       0x20 arch/arm/cpu/arm1176/start.o
 .rel.u_boot_list_2_part_driver_2_a_efi
                0x00058e48       0x20 arch/arm/cpu/arm1176/start.o
 .rel.text.device_bind
                0x00058e68       0x10 arch/arm/cpu/arm1176/start.o
 .rel.text.device_probe
                0x00058e78       0x10 arch/arm/cpu/arm1176/start.o
 .rel.text.dev_get_platdata
                0x00058e88       0x10 arch/arm/cpu/arm1176/start.o
 .rel.text.dev_get_parent_platdata
                0x00000000        0x0 arch/arm/cpu/arm1176/start.o
 .rel.text.dev_get_uclass_platdata
                0x00000000        0x0 arch/arm/cpu/arm1176/start.o
 .rel.text.dev_get_priv
                0x00058e98       0x10 arch/arm/cpu/arm1176/start.o
 .rel.text.dev_get_uclass_priv
                0x00058ea8       0x10 arch/arm/cpu/arm1176/start.o
 .rel.text.dev_get_parent_priv
                0x00000000        0x0 arch/arm/cpu/arm1176/start.o
 .rel.text.lists_driver_lookup_name
                0x00058eb8       0x10 arch/arm/cpu/arm1176/start.o
 .rel.text.lists_uclass_lookup
                0x00058ec8       0x10 arch/arm/cpu/arm1176/start.o
 .rel.text.lists_bind_drivers
                0x00058ed8       0x18 arch/arm/cpu/arm1176/start.o
 .rel.text.dm_root
                0x00058ef0        0x8 arch/arm/cpu/arm1176/start.o
 .rel.text.dm_init
                0x00058ef8       0x10 arch/arm/cpu/arm1176/start.o
 .rel.text.dm_scan_platdata
                0x00058f08        0x8 arch/arm/cpu/arm1176/start.o
 .rel.text.uclass_resolve_seq
                0x00058f10        0x8 arch/arm/cpu/arm1176/start.o
 .rel.text.device_remove
                0x00058f18       0x20 arch/arm/cpu/arm1176/start.o
 .rel.text.show_devices
                0x00058f38       0x30 arch/arm/cpu/arm1176/start.o
 .rel.text.dm_dump_all
                0x00058f68       0x10 arch/arm/cpu/arm1176/start.o
 .rel.text.dm_dump_uclass
                0x00058f78       0x20 arch/arm/cpu/arm1176/start.o
 .rel.text.lcd_ctrl_init
                0x00058f98       0x20 arch/arm/cpu/arm1176/start.o
 .rel.text._input_send_keycodes
                0x00000000        0x0 arch/arm/cpu/arm1176/start.o
 .rel.text.input_add_tables
                0x00000000        0x0 arch/arm/cpu/arm1176/start.o
 .rel.text.input_stdio_register
                0x00000000        0x0 arch/arm/cpu/arm1176/start.o
 .rel.rodata.root_info
                0x00058fb8        0x8 arch/arm/cpu/arm1176/start.o
 .rel.rodata.kbd_to_ansi364
                0x00000000        0x0 arch/arm/cpu/arm1176/start.o
 .rel.u_boot_list_2_driver_2_root_driver
                0x00058fc0        0x8 arch/arm/cpu/arm1176/start.o
 .rel.u_boot_list_2_uclass_2_root
                0x00058fc8        0x8 arch/arm/cpu/arm1176/start.o
 .rel.u_boot_list_2_uclass_2_disk
                0x00058fd0        0x8 arch/arm/cpu/arm1176/start.o
 .rel.data.kbd_entry
                0x00000000        0x0 arch/arm/cpu/arm1176/start.o
 .rel.text.check_reserved
                0x00058fd8       0x10 arch/arm/cpu/arm1176/start.o
 .rel.text.dm_gpio_lookup_name
                0x00058fe8        0x8 arch/arm/cpu/arm1176/start.o
 .rel.text.gpio_direction_input
                0x00058ff0        0x8 arch/arm/cpu/arm1176/start.o
 .rel.text.gpio_direction_output
                0x00058ff8        0x8 arch/arm/cpu/arm1176/start.o
 .rel.text.dm_gpio_get_value
                0x00059000        0x8 arch/arm/cpu/arm1176/start.o
 .rel.text.dm_gpio_set_value
                0x00059008        0x8 arch/arm/cpu/arm1176/start.o
 .rel.text.dm_gpio_set_dir_flags
                0x00000000        0x0 arch/arm/cpu/arm1176/start.o
 .rel.text._gpio_request_by_name_nodev
                0x00000000        0x0 arch/arm/cpu/arm1176/start.o
 .rel.text.gpio_get_status
                0x00059010       0x28 arch/arm/cpu/arm1176/start.o
 .rel.text.gpio_get_list_count
                0x00000000        0x0 arch/arm/cpu/arm1176/start.o
 .rel.text.bcm2835_gpio_probe
                0x00059038        0x8 arch/arm/cpu/arm1176/start.o
 .rel.rodata.gpio_function
                0x00059040       0x28 arch/arm/cpu/arm1176/start.o
 .rel.rodata.gpio_bcm2835_ops
                0x00059068       0x28 arch/arm/cpu/arm1176/start.o
 .rel.u_boot_list_2_uclass_2_gpio
                0x00059090       0x18 arch/arm/cpu/arm1176/start.o
 .rel.u_boot_list_2_driver_2_gpio_bcm2835
                0x000590a8       0x18 arch/arm/cpu/arm1176/start.o
 .rel.text.bcm2835_sdhci_writew
                0x000590c0        0x8 arch/arm/cpu/arm1176/start.o
 .rel.text.bcm2835_sdhci_init
                0x000590c8       0x18 arch/arm/cpu/arm1176/start.o
 .rel.text.mmc_set_capacity
                0x000590e0       0x40 arch/arm/cpu/arm1176/start.o
 .rel.text.mmc_send_status
                0x00059120       0x10 arch/arm/cpu/arm1176/start.o
 .rel.text.find_mmc_device
                0x00059130       0x10 arch/arm/cpu/arm1176/start.o
 .rel.text.mmc_select_hwpart
                0x00059140        0x8 arch/arm/cpu/arm1176/start.o
 .rel.text.mmc_bread
                0x00059148       0x10 arch/arm/cpu/arm1176/start.o
 .rel.text.mmc_hwpart_config
                0x00059158       0x48 arch/arm/cpu/arm1176/start.o
 .rel.text.mmc_startup
                0x000591a0       0xa8 arch/arm/cpu/arm1176/start.o
 .rel.text.mmc_register
                0x00000000        0x0 arch/arm/cpu/arm1176/start.o
 .rel.text.mmc_create
                0x00059248       0x28 arch/arm/cpu/arm1176/start.o
 .rel.text.mmc_start_init
                0x00059270       0x10 arch/arm/cpu/arm1176/start.o
 .rel.text.print_mmc_devices
                0x00059280       0x40 arch/arm/cpu/arm1176/start.o
 .rel.text.get_mmc_num
                0x000592c0        0x8 arch/arm/cpu/arm1176/start.o
 .rel.text.mmc_initialize
                0x000592c8       0x18 arch/arm/cpu/arm1176/start.o
 .rel.text.sdhci_init
                0x000592e0       0x18 arch/arm/cpu/arm1176/start.o
 .rel.text.sdhci_set_ios
                0x000592f8       0x18 arch/arm/cpu/arm1176/start.o
 .rel.text.sdhci_reset
                0x00059310       0x10 arch/arm/cpu/arm1176/start.o
 .rel.text.sdhci_send_command
                0x00059320       0x48 arch/arm/cpu/arm1176/start.o
 .rel.text.add_sdhci
                0x00059368       0x20 arch/arm/cpu/arm1176/start.o
 .rel.text.mmc_berase
                0x00059388       0x10 arch/arm/cpu/arm1176/start.o
 .rel.text.mmc_bwrite
                0x00059398       0x18 arch/arm/cpu/arm1176/start.o
 .rel.rodata.bcm2835_ops
                0x000593b0       0x30 arch/arm/cpu/arm1176/start.o
 .rel.rodata.sdhci_ops
                0x000593e0       0x18 arch/arm/cpu/arm1176/start.o
 .rel.text.serial_post_probe
                0x000593f8       0x20 arch/arm/cpu/arm1176/start.o
 .rel.text.serial_init
                0x00059418        0x8 arch/arm/cpu/arm1176/start.o
 .rel.text.on_baudrate
                0x00059420       0x20 arch/arm/cpu/arm1176/start.o
 .rel.rodata.pl01x_serial_ops
                0x00059440       0x20 arch/arm/cpu/arm1176/start.o
 .rel.u_boot_list_2_env_clbk_2_baudrate
                0x00059460       0x10 arch/arm/cpu/arm1176/start.o
 .rel.u_boot_list_2_uclass_2_serial
                0x00059470       0x18 arch/arm/cpu/arm1176/start.o
 .rel.u_boot_list_2_driver_2_serial_pl01x
                0x00059488       0x18 arch/arm/cpu/arm1176/start.o
 .rel.text.spi_set_wordlen
                0x00000000        0x0 arch/arm/cpu/arm1176/start.o
 .rel.text.is_eth_dev_on_usb_host
                0x00000000        0x0 arch/arm/cpu/arm1176/start.o
 .rel.text.usb_host_eth_scan
                0x000594a0       0x48 arch/arm/cpu/arm1176/start.o
 .rel.text.smsc95xx_recv
                0x000594e8        0x8 arch/arm/cpu/arm1176/start.o
 .rel.text.smsc95xx_init
                0x000594f0       0x20 arch/arm/cpu/arm1176/start.o
 .rel.text.smsc95xx_eth_before_probe
                0x00059510        0x8 arch/arm/cpu/arm1176/start.o
 .rel.text.smsc95xx_eth_probe
                0x00059518        0x8 arch/arm/cpu/arm1176/start.o
 .rel.text.smsc95xx_eth_get_info
                0x00059520       0x40 arch/arm/cpu/arm1176/start.o
 .rel.rodata.prob_dev
                0x00059560       0x18 arch/arm/cpu/arm1176/start.o
 .rel.text.dwc_otg_core_reset
                0x00059578       0x10 arch/arm/cpu/arm1176/start.o
 .rel.text.chunk_msg
                0x00059588        0x8 arch/arm/cpu/arm1176/start.o
 .rel.text._submit_int_msg
                0x00059590        0x8 arch/arm/cpu/arm1176/start.o
 .rel.text.submit_control_msg
                0x00059598       0x38 arch/arm/cpu/arm1176/start.o
 .rel.text.submit_bulk_msg
                0x000595d0        0x8 arch/arm/cpu/arm1176/start.o
 .rel.text.submit_int_msg
                0x000595d8        0x8 arch/arm/cpu/arm1176/start.o
 .rel.text.usb_lowlevel_init
                0x000595e0       0x48 arch/arm/cpu/arm1176/start.o
 .rel.text.usb_lowlevel_stop
                0x00059628        0x8 arch/arm/cpu/arm1176/start.o
 .rel.text.fs_probe_unsupported
                0x00059630        0x8 arch/arm/cpu/arm1176/start.o
 .rel.text.fs_get_info
                0x00059638        0x8 arch/arm/cpu/arm1176/start.o
 .rel.text.fs_close
                0x00059640        0x8 arch/arm/cpu/arm1176/start.o
 .rel.text.fs_set_blk_dev
                0x00059648       0x20 arch/arm/cpu/arm1176/start.o
 .rel.text.fs_uuid
                0x00000000        0x0 arch/arm/cpu/arm1176/start.o
 .rel.text.fs_ls
                0x00059668        0x8 arch/arm/cpu/arm1176/start.o
 .rel.text.fs_exists
                0x00059670        0x8 arch/arm/cpu/arm1176/start.o
 .rel.text.fs_size
                0x00059678        0x8 arch/arm/cpu/arm1176/start.o
 .rel.text.fs_read
                0x00059680       0x10 arch/arm/cpu/arm1176/start.o
 .rel.text.fs_write
                0x00059690       0x10 arch/arm/cpu/arm1176/start.o
 .rel.text.do_size
                0x000596a0        0x8 arch/arm/cpu/arm1176/start.o
 .rel.text.do_load
                0x000596a8       0x50 arch/arm/cpu/arm1176/start.o
 .rel.text.do_ls
                0x000596f8        0x8 arch/arm/cpu/arm1176/start.o
 .rel.text.do_save
                0x00059700       0x28 arch/arm/cpu/arm1176/start.o
 .rel.text.do_fs_uuid
                0x00000000        0x0 arch/arm/cpu/arm1176/start.o
 .rel.text.do_fs_type
                0x00059728       0x10 arch/arm/cpu/arm1176/start.o
 .rel.text.get_fs
                0x00059738        0x8 arch/arm/cpu/arm1176/start.o
 .rel.text.ext4fs_free_node
                0x00059740        0x8 arch/arm/cpu/arm1176/start.o
 .rel.text.ext4fs_read_file
                0x00059748        0x8 arch/arm/cpu/arm1176/start.o
 .rel.text.ext4fs_ls
                0x00059750       0x10 arch/arm/cpu/arm1176/start.o
 .rel.text.ext4fs_read
                0x00059760       0x10 arch/arm/cpu/arm1176/start.o
 .rel.text.ext4_read_file
                0x00059770       0x10 arch/arm/cpu/arm1176/start.o
 .rel.text.ext4fs_uuid
                0x00059780        0x8 arch/arm/cpu/arm1176/start.o
 .rel.text.read_allocated_block
                0x00059788       0xb8 arch/arm/cpu/arm1176/start.o
 .rel.text.ext4fs_reinit_global
                0x00059840       0x48 arch/arm/cpu/arm1176/start.o
 .rel.text.ext4fs_close
                0x00059888       0x10 arch/arm/cpu/arm1176/start.o
 .rel.text.ext4fs_iterate_dir
                0x00059898       0x30 arch/arm/cpu/arm1176/start.o
 .rel.text.ext4fs_find_file1
                0x000598c8       0x10 arch/arm/cpu/arm1176/start.o
 .rel.text.ext4fs_find_file
                0x000598d8        0x8 arch/arm/cpu/arm1176/start.o
 .rel.text.ext4fs_open
                0x000598e0       0x10 arch/arm/cpu/arm1176/start.o
 .rel.text.ext4fs_mount
                0x000598f0       0x10 arch/arm/cpu/arm1176/start.o
 .rel.text.ext4fs_set_blk_dev
                0x00059900       0x18 arch/arm/cpu/arm1176/start.o
 .rel.text.ext4fs_devread
                0x00059918       0x40 arch/arm/cpu/arm1176/start.o
 .rel.text.downcase
                0x00059958        0x8 arch/arm/cpu/arm1176/start.o
 .rel.text.disk_read
                0x00059960       0x10 arch/arm/cpu/arm1176/start.o
 .rel.text.disk_write
                0x00059970       0x20 arch/arm/cpu/arm1176/start.o
 .rel.text.flush_fat_buffer
                0x00059990        0x8 arch/arm/cpu/arm1176/start.o
 .rel.text.get_fatent_value
                0x00059998        0x8 arch/arm/cpu/arm1176/start.o
 .rel.text.read_bootsectandvi
                0x000599a0       0x20 arch/arm/cpu/arm1176/start.o
 .rel.text.get_cluster
                0x000599c0        0x8 arch/arm/cpu/arm1176/start.o
 .rel.text.set_cluster
                0x000599c8        0x8 arch/arm/cpu/arm1176/start.o
 .rel.text.set_name
                0x000599d0        0x8 arch/arm/cpu/arm1176/start.o
 .rel.text.check_overflow
                0x000599d8       0x10 arch/arm/cpu/arm1176/start.o
 .rel.text.get_vfatname
                0x000599e8       0x18 arch/arm/cpu/arm1176/start.o
 .rel.text.flush_dir_table.constprop.9
                0x00059a00       0x20 arch/arm/cpu/arm1176/start.o
 .rel.text.do_fat_write
                0x00059a20       0x88 arch/arm/cpu/arm1176/start.o
 .rel.text.fat_set_blk_dev
                0x00059aa8       0x28 arch/arm/cpu/arm1176/start.o
 .rel.text.fat_register_device
                0x00000000        0x0 arch/arm/cpu/arm1176/start.o
 .rel.text.do_fat_read_at
                0x00059ad0       0x58 arch/arm/cpu/arm1176/start.o
 .rel.text.file_fat_detectfs
                0x00059b28       0xb0 arch/arm/cpu/arm1176/start.o
 .rel.text.file_fat_read_at
                0x00059bd8        0x8 arch/arm/cpu/arm1176/start.o
 .rel.text.fat_read_file
                0x00059be0        0x8 arch/arm/cpu/arm1176/start.o
 .rel.text.file_fat_write
                0x00059be8       0x10 arch/arm/cpu/arm1176/start.o
 .rel.text.file_getfsname
                0x00000000        0x0 arch/arm/cpu/arm1176/start.o
 .rel.text.file_cd
                0x00000000        0x0 arch/arm/cpu/arm1176/start.o
 .rel.text.file_detectfs
                0x00000000        0x0 arch/arm/cpu/arm1176/start.o
 .rel.text.file_ls
                0x00000000        0x0 arch/arm/cpu/arm1176/start.o
 .rel.text.file_read
                0x00000000        0x0 arch/arm/cpu/arm1176/start.o
 .rel.rodata.filesystems
                0x00000000        0x0 arch/arm/cpu/arm1176/start.o
 .rel.data.fstypes
                0x00059bf8       0xd8 arch/arm/cpu/arm1176/start.o
 .rel.text.efi_load_pe
                0x00059cd0       0x88 arch/arm/cpu/arm1176/start.o
 .rel.text.efi_save_gd
                0x00059d58        0x8 arch/arm/cpu/arm1176/start.o
 .rel.text.efi_restore_gd
                0x00059d60       0x10 arch/arm/cpu/arm1176/start.o
 .rel.text.efi_calculate_crc32
                0x00059d70        0x8 arch/arm/cpu/arm1176/start.o
 .rel.text.efi_uninstall_multiple_protocol_interfaces
                0x00059d78        0x8 arch/arm/cpu/arm1176/start.o
 .rel.text.efi_install_multiple_protocol_interfaces
                0x00059d80        0x8 arch/arm/cpu/arm1176/start.o
 .rel.text.efi_locate_protocol
                0x00059d88       0x10 arch/arm/cpu/arm1176/start.o
 .rel.text.efi_locate_handle_buffer
                0x00059d98        0x8 arch/arm/cpu/arm1176/start.o
 .rel.text.efi_protocols_per_handle
                0x00059da0        0x8 arch/arm/cpu/arm1176/start.o
 .rel.text.efi_open_protocol_information
                0x00059da8        0x8 arch/arm/cpu/arm1176/start.o
 .rel.text.efi_close_protocol
                0x00059db0        0x8 arch/arm/cpu/arm1176/start.o
 .rel.text.efi_open_protocol
                0x00059db8       0x10 arch/arm/cpu/arm1176/start.o
 .rel.text.efi_disconnect_controller
                0x00059dc8        0x8 arch/arm/cpu/arm1176/start.o
 .rel.text.efi_connect_controller
                0x00059dd0        0x8 arch/arm/cpu/arm1176/start.o
 .rel.text.efi_set_watchdog_timer
                0x00059dd8        0x8 arch/arm/cpu/arm1176/start.o
 .rel.text.efi_stall
                0x00059de0        0x8 arch/arm/cpu/arm1176/start.o
 .rel.text.efi_get_next_monotonic_count
                0x00059de8       0x10 arch/arm/cpu/arm1176/start.o
 .rel.text.efi_exit_boot_services
                0x00059df8       0x10 arch/arm/cpu/arm1176/start.o
 .rel.text.efi_unload_image
                0x00059e08       0x10 arch/arm/cpu/arm1176/start.o
 .rel.text.efi_exit
                0x00059e18        0x8 arch/arm/cpu/arm1176/start.o
 .rel.text.efi_start_image
                0x00059e20       0x18 arch/arm/cpu/arm1176/start.o
 .rel.text.efi_load_image
                0x00059e38       0x18 arch/arm/cpu/arm1176/start.o
 .rel.text.efi_install_configuration_table
                0x00059e50       0x10 arch/arm/cpu/arm1176/start.o
 .rel.text.efi_locate_device_path
                0x00059e60        0x8 arch/arm/cpu/arm1176/start.o
 .rel.text.efi_locate_handle
                0x00059e68       0x10 arch/arm/cpu/arm1176/start.o
 .rel.text.efi_register_protocol_notify
                0x00059e78        0x8 arch/arm/cpu/arm1176/start.o
 .rel.text.efi_uninstall_protocol_interface
                0x00059e80        0x8 arch/arm/cpu/arm1176/start.o
 .rel.text.efi_reinstall_protocol_interface
                0x00059e88        0x8 arch/arm/cpu/arm1176/start.o
 .rel.text.efi_install_protocol_interface
                0x00059e90        0x8 arch/arm/cpu/arm1176/start.o
 .rel.text.efi_check_event
                0x00059e98        0x8 arch/arm/cpu/arm1176/start.o
 .rel.text.efi_close_event
                0x00059ea0       0x10 arch/arm/cpu/arm1176/start.o
 .rel.text.efi_signal_event
                0x00059eb0        0x8 arch/arm/cpu/arm1176/start.o
 .rel.text.efi_set_timer
                0x00059eb8       0x18 arch/arm/cpu/arm1176/start.o
 .rel.text.efi_create_event
                0x00059ed0       0x10 arch/arm/cpu/arm1176/start.o
 .rel.text.efi_free_pool
                0x00059ee0        0x8 arch/arm/cpu/arm1176/start.o
 .rel.text.efi_allocate_pool
                0x00059ee8        0x8 arch/arm/cpu/arm1176/start.o
 .rel.text.efi_restore_tpl
                0x00059ef0        0x8 arch/arm/cpu/arm1176/start.o
 .rel.text.efi_raise_tpl
                0x00059ef8        0x8 arch/arm/cpu/arm1176/start.o
 .rel.text.efi_get_memory_map_ext
                0x00059f00        0x8 arch/arm/cpu/arm1176/start.o
 .rel.text.efi_free_pages_ext
                0x00059f08        0x8 arch/arm/cpu/arm1176/start.o
 .rel.text.efi_allocate_pages_ext
                0x00059f10        0x8 arch/arm/cpu/arm1176/start.o
 .rel.text.efi_exit_func
                0x00059f18        0x8 arch/arm/cpu/arm1176/start.o
 .rel.text.efi_timer_check
                0x00059f20        0x8 arch/arm/cpu/arm1176/start.o
 .rel.text.efi_wait_for_event
                0x00059f28       0x10 arch/arm/cpu/arm1176/start.o
 .rel.text.efi_runtime_relocate
                0x00059f38       0x28 arch/arm/cpu/arm1176/start.o
 .rel.text.efi_set_virtual_address_map
                0x00059f60       0x10 arch/arm/cpu/arm1176/start.o
 .rel.text.efi_cout_enable_cursor
                0x00059f70        0x8 arch/arm/cpu/arm1176/start.o
 .rel.text.efi_cout_set_cursor_position
                0x00059f78       0x10 arch/arm/cpu/arm1176/start.o
 .rel.text.efi_cout_clear_screen
                0x00059f88        0x8 arch/arm/cpu/arm1176/start.o
 .rel.text.efi_cout_output_string
                0x00059f90       0x18 arch/arm/cpu/arm1176/start.o
 .rel.text.efi_cout_query_mode
                0x00059fa8       0x20 arch/arm/cpu/arm1176/start.o
 .rel.text.efi_find_free_memory
                0x00059fc8        0x8 arch/arm/cpu/arm1176/start.o
 .rel.text.efi_add_memory_map
                0x00059fd0       0x10 arch/arm/cpu/arm1176/start.o
 .rel.text.efi_get_memory_map
                0x00059fe0        0x8 arch/arm/cpu/arm1176/start.o
 .rel.text.efi_memory_init
                0x00059fe8       0x10 arch/arm/cpu/arm1176/start.o
 .rel.text.gop_blt
                0x00059ff8        0x8 arch/arm/cpu/arm1176/start.o
 .rel.text.efi_gop_register
                0x0005a000       0x38 arch/arm/cpu/arm1176/start.o
 .rel.text.efi_disk_add_dev
                0x0005a038       0x48 arch/arm/cpu/arm1176/start.o
 .rel.text.efi_disk_register
                0x0005a080       0x28 arch/arm/cpu/arm1176/start.o
 .rel.text.inflate_fast
                0x0005a0a8       0x18 arch/arm/cpu/arm1176/start.o
 .rel.text.inflate_table
                0x0005a0c0       0x20 arch/arm/cpu/arm1176/start.o
 .rel.text.inflateInit2_
                0x0005a0e0       0x10 arch/arm/cpu/arm1176/start.o
 .rel.text.inflate
                0x0005a0f0      0x188 arch/arm/cpu/arm1176/start.o
 .rel.text.crc7
                0x00000000        0x0 arch/arm/cpu/arm1176/start.o
 .rel.text.crc16_ccitt
                0x0005a278        0x8 arch/arm/cpu/arm1176/start.o
 .rel.text.zunzip
                0x0005a280       0x28 arch/arm/cpu/arm1176/start.o
 .rel.text.gunzip
                0x0005a2a8       0x10 arch/arm/cpu/arm1176/start.o
 .rel.text.initcall_run_list
                0x0005a2b8        0x8 arch/arm/cpu/arm1176/start.o
 .rel.text.lmb_alloc_base
                0x0005a2c0        0x8 arch/arm/cpu/arm1176/start.o
 .rel.text.strmhz
                0x00000000        0x0 arch/arm/cpu/arm1176/start.o
 .rel.text.list_sort
                0x0005a2c8        0x8 arch/arm/cpu/arm1176/start.o
 .rel.text.fdt_next_tag
                0x0005a2d0       0x48 arch/arm/cpu/arm1176/start.o
 .rel.text.fdt_get_phandle
                0x00000000        0x0 arch/arm/cpu/arm1176/start.o
 .rel.text.fdt_get_alias_namelen
                0x0005a318        0x8 arch/arm/cpu/arm1176/start.o
 .rel.text.fdt_node_check_compatible
                0x00000000        0x0 arch/arm/cpu/arm1176/start.o
 .rel.text.fdt_strerror
                0x0005a320       0x20 arch/arm/cpu/arm1176/start.o
 .rel.text.fdt_find_regions
                0x00000000        0x0 arch/arm/cpu/arm1176/start.o
 .rel.text.fdt_create_empty_tree
                0x00000000        0x0 arch/arm/cpu/arm1176/start.o
 .rel.text.fdt_address_cells
                0x0005a340        0x8 arch/arm/cpu/arm1176/start.o
 .rel.text.fdt_size_cells
                0x0005a348        0x8 arch/arm/cpu/arm1176/start.o
 .rel.text.fdt_add_alias_regions
                0x00000000        0x0 arch/arm/cpu/arm1176/start.o
 .rel.text.fdt_next_region
                0x00000000        0x0 arch/arm/cpu/arm1176/start.o
 .rel.text.match_string
                0x0005a350        0x8 arch/arm/cpu/arm1176/start.o
 .rel.text.match_entry
                0x0005a358        0x8 arch/arm/cpu/arm1176/start.o
 .rel.text.hcreate_r
                0x0005a360        0x8 arch/arm/cpu/arm1176/start.o
 .rel.text.hdestroy_r
                0x0005a368        0x8 arch/arm/cpu/arm1176/start.o
 .rel.text.hmatch_r
                0x0005a370        0x8 arch/arm/cpu/arm1176/start.o
 .rel.text.hsearch_r
                0x0005a378        0x8 arch/arm/cpu/arm1176/start.o
 .rel.text.hdelete_r
                0x0005a380        0x8 arch/arm/cpu/arm1176/start.o
 .rel.text.hexport_r
                0x0005a388       0x18 arch/arm/cpu/arm1176/start.o
 .rel.text.himport_r
                0x0005a3a0       0x20 arch/arm/cpu/arm1176/start.o
 .rel.text.display_options
                0x0005a3c0       0x10 arch/arm/cpu/arm1176/start.o
 .rel.text.print_freq
                0x00000000        0x0 arch/arm/cpu/arm1176/start.o
 .rel.text.print_size
                0x0005a3d0       0x28 arch/arm/cpu/arm1176/start.o
 .rel.text.print_buffer
                0x0005a3f8       0x28 arch/arm/cpu/arm1176/start.o
 .rel.text.crc32_no_comp
                0x0005a420        0x8 arch/arm/cpu/arm1176/start.o
 .rel.text.hang
                0x0005a428        0x8 arch/arm/cpu/arm1176/start.o
 .rel.text.skip_spaces
                0x0005a430        0x8 arch/arm/cpu/arm1176/start.o
 .rel.text.strim
                0x0005a438        0x8 arch/arm/cpu/arm1176/start.o
 .rel.text.emit
                0x0005a440        0x8 arch/arm/cpu/arm1176/start.o
 .rel.text.store_char_in_data
                0x0005a448        0x8 arch/arm/cpu/arm1176/start.o
 .rel.text.match
                0x0005a450       0xa0 arch/arm/cpu/arm1176/start.o
 .rel.text.fixup_branch.part.0
                0x0005a4f0        0x8 arch/arm/cpu/arm1176/start.o
 .rel.text.quantifier
                0x0005a4f8        0x8 arch/arm/cpu/arm1176/start.o
 .rel.text.compile
                0x0005a500       0x28 arch/arm/cpu/arm1176/start.o
 .rel.text.strncasecmp
                0x0005a528        0x8 arch/arm/cpu/arm1176/start.o
 .rel.text.strtok
                0x00000000        0x0 arch/arm/cpu/arm1176/start.o
 .rel.text.uuid_str_valid
                0x0005a530        0x8 arch/arm/cpu/arm1176/start.o
 .rel.text.uuid_bin_to_str
                0x0005a538       0x18 arch/arm/cpu/arm1176/start.o
 .rel.text.string
                0x0005a550        0x8 arch/arm/cpu/arm1176/start.o
 .rel.text.number
                0x0005a558        0x8 arch/arm/cpu/arm1176/start.o
 .rel.text.vsnprintf_internal
                0x0005a560       0x10 arch/arm/cpu/arm1176/start.o
 .rel.text.__assert_fail
                0x00000000        0x0 arch/arm/cpu/arm1176/start.o
 .rel.text.simple_itoa
                0x0005a570        0x8 arch/arm/cpu/arm1176/start.o
 .rel.text.print_grouped_ull
                0x00000000        0x0 arch/arm/cpu/arm1176/start.o
 .rel.text.simple_strtoul
                0x0005a578        0x8 arch/arm/cpu/arm1176/start.o
 .rel.text.simple_strtoull
                0x0005a580        0x8 arch/arm/cpu/arm1176/start.o
 .rel.text.trailing_strtoln
                0x0005a588        0x8 arch/arm/cpu/arm1176/start.o
 .rel.rodata.efi_boot_services
                0x0005a590      0x150 arch/arm/cpu/arm1176/start.o
 .rel.rodata.efi_runtime_detach_list
                0x0005a6e0       0x28 arch/arm/cpu/arm1176/start.o
 .rel.rodata.efi_con_out
                0x0005a708       0x50 arch/arm/cpu/arm1176/start.o
 .rel.rodata.efi_console_control
                0x0005a758       0x18 arch/arm/cpu/arm1176/start.o
 .rel.rodata.efi_con_in
                0x0005a770       0x10 arch/arm/cpu/arm1176/start.o
 .rel.rodata.z_errmsg
                0x00000000        0x0 arch/arm/cpu/arm1176/start.o
 .rel.rodata.fdt_errtable
                0x0005a780       0x58 arch/arm/cpu/arm1176/start.o
 .rel.data.loaded_image_info_obj.7575
                0x0005a7d8       0x10 arch/arm/cpu/arm1176/start.o
 .rel.data.efi_class_maps
                0x0005a7e8       0x10 arch/arm/cpu/arm1176/start.o
 .rel.data.efi_obj_list
                0x0005a7f8       0x10 arch/arm/cpu/arm1176/start.o
 .rel.data.efi_mem
                0x0005a808       0x10 arch/arm/cpu/arm1176/start.o
 .rel.data.current
                0x00000000        0x0 arch/arm/cpu/arm1176/start.o
 .rel.text.arp_init
                0x0005a818       0x30 arch/arm/cpu/arm1176/start.o
 .rel.text.arp_raw_request
                0x0005a848       0x18 arch/arm/cpu/arm1176/start.o
 .rel.text.arp_request
                0x0005a860       0x38 arch/arm/cpu/arm1176/start.o
 .rel.text.arp_timeout_check
                0x0005a898       0x28 arch/arm/cpu/arm1176/start.o
 .rel.text.arp_receive
                0x0005a8c0       0x40 arch/arm/cpu/arm1176/start.o
 .rel.text.dhcp_extended
                0x0005a900       0x18 arch/arm/cpu/arm1176/start.o
 .rel.text.dhcp_process_options
                0x0005a918       0x68 arch/arm/cpu/arm1176/start.o
 .rel.text.dhcp_packet_process_options
                0x0005a980        0x8 arch/arm/cpu/arm1176/start.o
 .rel.text.dhcp_handler
                0x0005a988       0x90 arch/arm/cpu/arm1176/start.o
 .rel.text.bootp_reset
                0x0005aa18       0x20 arch/arm/cpu/arm1176/start.o
 .rel.text.bootp_request
                0x0005aa38       0x78 arch/arm/cpu/arm1176/start.o
 .rel.text.bootp_timeout_handler
                0x0005aab0       0x28 arch/arm/cpu/arm1176/start.o
 .rel.text.on_ethaddr
                0x0005aad8        0x8 arch/arm/cpu/arm1176/start.o
 .rel.text.eth_set_current_to_next
                0x0005aae0        0x8 arch/arm/cpu/arm1176/start.o
 .rel.text.eth_set_dev
                0x0005aae8        0x8 arch/arm/cpu/arm1176/start.o
 .rel.text.eth_get_dev_by_name
                0x0005aaf0       0x28 arch/arm/cpu/arm1176/start.o
 .rel.text.eth_get_dev_by_index
                0x0005ab18        0x8 arch/arm/cpu/arm1176/start.o
 .rel.text.eth_get_dev_index
                0x0005ab20        0x8 arch/arm/cpu/arm1176/start.o
 .rel.text.eth_write_hwaddr
                0x0005ab28       0x30 arch/arm/cpu/arm1176/start.o
 .rel.text.eth_register
                0x0005ab58       0x18 arch/arm/cpu/arm1176/start.o
 .rel.text.eth_unregister
                0x0005ab70       0x10 arch/arm/cpu/arm1176/start.o
 .rel.text.eth_initialize
                0x0005ab80       0x78 arch/arm/cpu/arm1176/start.o
 .rel.text.eth_init
                0x0005abf8       0x10 arch/arm/cpu/arm1176/start.o
 .rel.text.eth_halt
                0x0005ac08        0x8 arch/arm/cpu/arm1176/start.o
 .rel.text.eth_send
                0x0005ac10        0x8 arch/arm/cpu/arm1176/start.o
 .rel.text.eth_rx
                0x0005ac18        0x8 arch/arm/cpu/arm1176/start.o
 .rel.text.eth_setenv_enetaddr
                0x0005ac20        0x8 arch/arm/cpu/arm1176/start.o
 .rel.text.eth_getenv_enetaddr_by_index
                0x0005ac28       0x10 arch/arm/cpu/arm1176/start.o
 .rel.text.eth_setenv_enetaddr_by_index
                0x0005ac38       0x10 arch/arm/cpu/arm1176/start.o
 .rel.text.eth_mac_skip
                0x0005ac48       0x10 arch/arm/cpu/arm1176/start.o
 .rel.text.eth_get_name
                0x0005ac58       0x10 arch/arm/cpu/arm1176/start.o
 .rel.text.eth_current_changed
                0x0005ac68       0x20 arch/arm/cpu/arm1176/start.o
 .rel.text.eth_set_current
                0x0005ac88       0x20 arch/arm/cpu/arm1176/start.o
 .rel.text.eth_try_another
                0x0005aca8       0x28 arch/arm/cpu/arm1176/start.o
 .rel.text.start_again_timeout_handler
                0x0005acd0        0x8 arch/arm/cpu/arm1176/start.o
 .rel.text.on_serverip
                0x0005acd8        0x8 arch/arm/cpu/arm1176/start.o
 .rel.text.on_netmask
                0x0005ace0        0x8 arch/arm/cpu/arm1176/start.o
 .rel.text.on_gatewayip
                0x0005ace8        0x8 arch/arm/cpu/arm1176/start.o
 .rel.text.on_ipaddr
                0x0005acf0        0x8 arch/arm/cpu/arm1176/start.o
 .rel.text.net_init_loop
                0x0005acf8       0x10 arch/arm/cpu/arm1176/start.o
 .rel.text.net_clear_handlers
                0x0005ad08       0x20 arch/arm/cpu/arm1176/start.o
 .rel.text.net_auto_load
                0x0005ad28       0x18 arch/arm/cpu/arm1176/start.o
 .rel.text.net_init
                0x0005ad40       0x20 arch/arm/cpu/arm1176/start.o
 .rel.text.net_start_again
                0x0005ad60       0x78 arch/arm/cpu/arm1176/start.o
 .rel.text.net_loop
                0x0005add8      0x188 arch/arm/cpu/arm1176/start.o
 .rel.text.net_get_udp_handler
                0x00000000        0x0 arch/arm/cpu/arm1176/start.o
 .rel.text.net_set_udp_handler
                0x0005af60       0x10 arch/arm/cpu/arm1176/start.o
 .rel.text.net_get_arp_handler
                0x0005af70        0x8 arch/arm/cpu/arm1176/start.o
 .rel.text.net_set_arp_handler
                0x00000000        0x0 arch/arm/cpu/arm1176/start.o
 .rel.text.net_set_timeout_handler
                0x0005af78       0x18 arch/arm/cpu/arm1176/start.o
 .rel.text.net_process_received_packet
                0x0005af90       0x38 arch/arm/cpu/arm1176/start.o
 .rel.text.net_eth_hdr_size
                0x0005afc8        0x8 arch/arm/cpu/arm1176/start.o
 .rel.text.net_set_ether
                0x0005afd0       0x10 arch/arm/cpu/arm1176/start.o
 .rel.text.net_update_ether
                0x0005afe0        0x8 arch/arm/cpu/arm1176/start.o
 .rel.text.net_set_ip_header
                0x0005afe8        0x8 arch/arm/cpu/arm1176/start.o
 .rel.text.net_set_udp_header
                0x0005aff0        0x8 arch/arm/cpu/arm1176/start.o
 .rel.text.net_send_udp_packet
                0x0005aff8       0x40 arch/arm/cpu/arm1176/start.o
 .rel.text.on_bootfile
                0x0005b038        0x8 arch/arm/cpu/arm1176/start.o
 .rel.text.ip_to_string
                0x0005b040        0x8 arch/arm/cpu/arm1176/start.o
 .rel.text.vlan_to_string
                0x00000000        0x0 arch/arm/cpu/arm1176/start.o
 .rel.text.on_vlan
                0x0005b048        0x8 arch/arm/cpu/arm1176/start.o
 .rel.text.on_nvlan
                0x0005b050        0x8 arch/arm/cpu/arm1176/start.o
 .rel.text.rpc_add_credentials
                0x0005b058        0x8 arch/arm/cpu/arm1176/start.o
 .rel.text.rpc_lookup_reply
                0x0005b060       0x18 arch/arm/cpu/arm1176/start.o
 .rel.text.nfs_mount_reply
                0x0005b078       0x18 arch/arm/cpu/arm1176/start.o
 .rel.text.nfs_umountall_reply
                0x0005b090       0x18 arch/arm/cpu/arm1176/start.o
 .rel.text.nfs_lookup_reply
                0x0005b0a8       0x10 arch/arm/cpu/arm1176/start.o
 .rel.text.rpc_req
                0x0005b0b8       0x38 arch/arm/cpu/arm1176/start.o
 .rel.text.nfs_umountall_req
                0x0005b0f0       0x10 arch/arm/cpu/arm1176/start.o
 .rel.text.nfs_lookup_req
                0x0005b100        0x8 arch/arm/cpu/arm1176/start.o
 .rel.text.nfs_read_req
                0x0005b108        0x8 arch/arm/cpu/arm1176/start.o
 .rel.text.nfs_readlink_req
                0x0005b110        0x8 arch/arm/cpu/arm1176/start.o
 .rel.text.nfs_readlink_reply
                0x0005b118       0x18 arch/arm/cpu/arm1176/start.o
 .rel.text.nfs_read_reply.isra.3
                0x0005b130       0x28 arch/arm/cpu/arm1176/start.o
 .rel.text.nfs_send
                0x0005b158       0x60 arch/arm/cpu/arm1176/start.o
 .rel.text.nfs_handler
                0x0005b1b8       0xa8 arch/arm/cpu/arm1176/start.o
 .rel.text.nfs_timeout_handler
                0x0005b260       0x20 arch/arm/cpu/arm1176/start.o
 .rel.text.nfs_start
                0x0005b280       0xe0 arch/arm/cpu/arm1176/start.o
 .rel.text.ping_timeout_handler
                0x0005b360        0x8 arch/arm/cpu/arm1176/start.o
 .rel.text.ping_start
                0x0005b368       0x58 arch/arm/cpu/arm1176/start.o
 .rel.text.ping_receive
                0x0005b3c0       0x18 arch/arm/cpu/arm1176/start.o
 .rel.text.tftp_send
                0x0005b3d8       0xb8 arch/arm/cpu/arm1176/start.o
 .rel.text.tftp_handler
                0x0005b490       0xd0 arch/arm/cpu/arm1176/start.o
 .rel.text.tftp_timeout_handler
                0x0005b560       0x40 arch/arm/cpu/arm1176/start.o
 .rel.text.tftp_start
                0x0005b5a0      0x140 arch/arm/cpu/arm1176/start.o
 .rel.u_boot_list_2_env_clbk_2_ethaddr
                0x0005b6e0       0x10 arch/arm/cpu/arm1176/start.o
 .rel.u_boot_list_2_env_clbk_2_ipaddr
                0x0005b6f0       0x10 arch/arm/cpu/arm1176/start.o
 .rel.u_boot_list_2_env_clbk_2_vlan
                0x0005b700       0x10 arch/arm/cpu/arm1176/start.o
 .rel.u_boot_list_2_env_clbk_2_serverip
                0x0005b710       0x10 arch/arm/cpu/arm1176/start.o
 .rel.u_boot_list_2_env_clbk_2_bootfile
                0x0005b720       0x10 arch/arm/cpu/arm1176/start.o
 .rel.u_boot_list_2_env_clbk_2_netmask
                0x0005b730       0x10 arch/arm/cpu/arm1176/start.o
 .rel.u_boot_list_2_env_clbk_2_gatewayip
                0x0005b740       0x10 arch/arm/cpu/arm1176/start.o
 .rel.u_boot_list_2_env_clbk_2_nvlan
                0x0005b750       0x10 arch/arm/cpu/arm1176/start.o
 .rel.text.do_dm
                0x0005b760        0x8 arch/arm/cpu/arm1176/start.o
 .rel.u_boot_list_2_cmd_2_dm
                0x0005b768       0x20 arch/arm/cpu/arm1176/start.o
 .rel.data.test_commands
                0x0005b788       0x60 arch/arm/cpu/arm1176/start.o
 .rel.text.raise
                0x0005b7e8        0x8 arch/arm/cpu/arm1176/start.o

.rel_dyn_end    0x0005b7f0        0x0
 *(.__rel_dyn_end)
 .__rel_dyn_end
                0x0005b7f0        0x0 arch/arm/lib/built-in.o

.end            0x0005b7f0        0x0
 *(.__end)
 .__end         0x0005b7f0        0x0 arch/arm/lib/built-in.o
                0x0005b7f0                _image_binary_end = .
                0x0005c000                . = ALIGN (0x1000)

.mmutable
 *(.mmutable)

.bss_start      0x00053180        0x0
 *(.__bss_start)
 .__bss_start   0x00053180        0x0 arch/arm/lib/built-in.o
                0x00053180                __bss_start
                0x00053180                __bss_base = .

.bss            0x00053180    0x5eb14
 *(.bss*)
 .bss.params    0x00053180        0x4 arch/arm/lib/built-in.o
 .bss.model     0x00053184        0x4 board/raspberrypi/rpi/built-in.o
 .bss.revision  0x00053188        0x4 board/raspberrypi/rpi/built-in.o
 .bss.rev_type  0x0005318c        0x4 board/raspberrypi/rpi/built-in.o
 .bss.rev_scheme
                0x00053190        0x4 board/raspberrypi/rpi/built-in.o
 .bss.images    0x00053194      0x130 cmd/built-in.o
                0x00053194                images
 .bss.working_fdt
                0x000532c4        0x4 cmd/built-in.o
                0x000532c4                working_fdt
 .bss.data.7722
                0x000532c8      0x400 cmd/built-in.o
 .bss.send_parms
                0x000536c8       0x14 cmd/built-in.o
 .bss.os_data_init
                0x000536dc        0x4 cmd/built-in.o
 .bss.os_data_addr_saved
                0x000536e0        0x4 cmd/built-in.o
 .bss.his_pad_char
                0x000536e4        0x1 cmd/built-in.o
 .bss.a_b       0x000536e5       0x18 cmd/built-in.o
 *fill*         0x000536fd        0x3 00
 .bss.os_data_char
                0x00053700        0x4 cmd/built-in.o
 .bss.os_data_state
                0x00053704        0x4 cmd/built-in.o
 .bss.k_data_escape
                0x00053708        0x4 cmd/built-in.o
 .bss.os_data_state_saved
                0x0005370c        0x4 cmd/built-in.o
 .bss.os_data_addr
                0x00053710        0x4 cmd/built-in.o
 .bss.send_ptr  0x00053714        0x4 cmd/built-in.o
 .bss.bin_start_address
                0x00053718        0x4 cmd/built-in.o
 .bss.his_quote
                0x0005371c        0x1 cmd/built-in.o
 *fill*         0x0005371d        0x3 00
 .bss.his_pad_count
                0x00053720        0x4 cmd/built-in.o
 .bss.his_eol   0x00053724        0x1 cmd/built-in.o
 *fill*         0x00053725        0x3 00
 .bss.k_data_escape_saved
                0x00053728        0x4 cmd/built-in.o
 .bss.dp_last_addr
                0x0005372c        0x4 cmd/built-in.o
 .bss.base_address
                0x00053730        0x4 cmd/built-in.o
 .bss.mm_last_size
                0x00053734        0x4 cmd/built-in.o
 .bss.mm_last_addr
                0x00053738        0x4 cmd/built-in.o
 .bss.dp_last_size
                0x0005373c        0x4 cmd/built-in.o
 .bss.last_data
                0x00053740        0x4 cmd/built-in.o
 .bss.last_reg_hi
                0x00053744        0x4 cmd/built-in.o
 .bss.last_mask
                0x00053748        0x4 cmd/built-in.o
 .bss.last_addr_lo
                0x0005374c        0x4 cmd/built-in.o
 .bss.last_op   0x00053750        0x2 cmd/built-in.o
 *fill*         0x00053752        0x2 00
 .bss.last_addr_hi
                0x00053754        0x4 cmd/built-in.o
 .bss.last_reg_lo
                0x00053758        0x4 cmd/built-in.o
 .bss.do_getfile
                0x0005375c        0x4 cmd/built-in.o
 .bss.is_pxe    0x00053760        0x1 cmd/built-in.o
 *fill*         0x00053761        0x3 00
 .bss.fs_argv   0x00053764       0x14 cmd/built-in.o
 .bss.flag_repeat
                0x00053778        0x4 common/built-in.o
 .bss.the_command.7203
                0x0005377c      0x401 common/built-in.o
 *fill*         0x00053b7d        0x3 00
 .bss.ifs       0x00053b80        0x4 common/built-in.o
 .bss.last_return_code
                0x00053b84        0x4 common/built-in.o
 .bss.map       0x00053b88      0x100 common/built-in.o
 .bss.buf.7403  0x00053c88       0x28 common/built-in.o
 .bss.do_repeat
                0x00053cb0        0x4 common/built-in.o
 .bss.top_vars  0x00053cb4        0x4 common/built-in.o
 .bss.stored_bootdelay
                0x00053cb8        0x4 common/built-in.o
 .bss.monitor_flash_len
                0x00053cbc        0x4 common/built-in.o
                0x00053cbc                monitor_flash_len
 .bss.callback_list
                0x00053cc0        0x4 common/built-in.o
 .bss.flags_list
                0x00053cc4        0x4 common/built-in.o
 .bss.current_mii
                0x00053cc8        0x4 common/built-in.o
 .bss.mii_devs  0x00053ccc        0x8 common/built-in.o
 .bss.dev_index
                0x00053cd4        0x4 common/built-in.o
 *fill*         0x00053cd8        0x8 00
 .bss.usb_dev   0x00053ce0    0x12c00 common/built-in.o
 .bss.asynch_allowed
                0x000668e0        0x4 common/built-in.o
 .bss.usb_started
                0x000668e4        0x1 common/built-in.o
                0x000668e4                usb_started
 *fill*         0x000668e5        0x3 00
 .bss.running.9365
                0x000668e8        0x4 common/built-in.o
 .bss.usb_hub_index
                0x000668ec        0x4 common/built-in.o
 .bss.hub_dev   0x000668f0      0x380 common/built-in.o
 .bss.usb_stor  0x00066c70      0x16c common/built-in.o
 .bss.usb_dev_desc
                0x00066ddc      0x32c common/built-in.o
 .bss.usb_max_devs
                0x00067108        0x4 common/built-in.o
 .bss.CBWTag    0x0006710c        0x4 common/built-in.o
 *fill*         0x00067110       0x10 00
 .bss.usb_ccb   0x00067120       0xa0 common/built-in.o
 .bss.lcd_base  0x000671c0        0x4 common/built-in.o
 .bss.lcd_color_fg
                0x000671c4        0x4 common/built-in.o
 .bss.lcd_line_length
                0x000671c8        0x4 common/built-in.o
                0x000671c8                lcd_line_length
 .bss.lcd_color_bg
                0x000671cc        0x4 common/built-in.o
 .bss.lcd_is_enabled
                0x000671d0        0x1 common/built-in.o
                0x000671d0                lcd_is_enabled
 .bss.lcd_flush_dcache
                0x000671d1        0x1 common/built-in.o
 *fill*         0x000671d2        0x2 00
 .bss.cons      0x000671d4       0x24 common/built-in.o
 .bss.kbd_testc_tms
                0x000671f8        0x4 common/built-in.o
 .bss.ctrlc_was_pressed
                0x000671fc        0x4 common/built-in.o
 .bss.cd_count  0x00067200        0xc common/built-in.o
                0x00067200                cd_count
 .bss.tstcdev   0x0006720c        0x4 common/built-in.o
 .bss.ctrlc_disabled
                0x00067210        0x4 common/built-in.o
 .bss.console_devices
                0x00067214        0xc common/built-in.o
                0x00067214                console_devices
 .bss.max_total_mem
                0x00067220        0x4 common/built-in.o
 .bss.mem_malloc_brk
                0x00067224        0x4 common/built-in.o
                0x00067224                mem_malloc_brk
 .bss.max_sbrked_mem
                0x00067228        0x4 common/built-in.o
 .bss.current_mallinfo
                0x0006722c       0x28 common/built-in.o
 .bss.mem_malloc_end
                0x00067254        0x4 common/built-in.o
                0x00067254                mem_malloc_end
 .bss.top_pad   0x00067258        0x4 common/built-in.o
 .bss.mem_malloc_start
                0x0006725c        0x4 common/built-in.o
                0x0006725c                mem_malloc_start
 .bss.devs      0x00067260       0x4c common/built-in.o
 .bss.stdio_devices
                0x000672ac        0xc common/built-in.o
                0x000672ac                stdio_devices
 .bss.hist_list
                0x000672b8       0x50 common/built-in.o
 .bss.hist_lines
                0x00067308     0x5014 common/built-in.o
 .bss.hist_max  0x0006c31c        0x4 common/built-in.o
 .bss.hist_add_idx
                0x0006c320        0x4 common/built-in.o
 .bss.initted.6978
                0x0006c324        0x4 common/built-in.o
 .bss.hist_num  0x0006c328        0x4 common/built-in.o
 .bss.console_buffer
                0x0006c32c      0x401 common/built-in.o
                0x0006c32c                console_buffer
 .bss.tmp_buf   0x0006c72d      0x400 common/built-in.o
 .bss.tmp_buf.6960
                0x0006cb2d      0x200 common/built-in.o
 *fill*         0x0006cd2d        0x3 00
 .bss.xyz       0x0006cd30      0x434 common/built-in.o
 .bss.tmpbuf    0x0006d164      0x800 disk/built-in.o
 .bss.name.6970
                0x0006d964       0x25 disk/built-in.o
 *fill*         0x0006d989        0x3 00
 .bss.panel_info
                0x0006d98c       0x10 drivers/built-in.o
                0x0006d98c                panel_info
 .bss.bcm2835_pitch
                0x0006d99c        0x4 drivers/built-in.o
 .bss.shadow.7486
                0x0006d9a0        0x4 drivers/mmc/built-in.o
 .bss.initialized.9097
                0x0006d9a4        0x4 drivers/mmc/built-in.o
 .bss.mmc_devices
                0x0006d9a8        0x8 drivers/mmc/built-in.o
 .bss.aligned_buffer
                0x0006d9b0        0x4 drivers/mmc/built-in.o
                0x0006d9b0                aligned_buffer
 .bss.usb_eth   0x0006d9b4      0x1a4 drivers/usb/eth/built-in.o
 .bss.usb_max_eth_dev
                0x0006db58        0x4 drivers/usb/eth/built-in.o
 .bss.curr_eth_dev
                0x0006db5c        0x4 drivers/usb/eth/built-in.o
 .bss.__recv_buf.9347
                0x0006db60      0xa00 drivers/usb/eth/built-in.o
 .bss.__aligned_buffer_addr
                0x0006e560    0x10000 drivers/usb/host/built-in.o
 .bss.__status_buffer_addr
                0x0007e560       0x40 drivers/usb/host/built-in.o
 .bss.local     0x0007e5a0      0x214 drivers/usb/host/built-in.o
 .bss.fs_partition
                0x0007e7b4       0x78 fs/built-in.o
 .bss.fs_type   0x0007e82c        0x4 fs/built-in.o
 .bss.fs_dev_desc
                0x0007e830        0x4 fs/built-in.o
 *fill*         0x0007e834        0x4 00
 .bss.ext_fs    0x0007e838       0x48 fs/built-in.o
                0x0007e838                ext_fs
 .bss.ext4fs_indir3_block
                0x0007e880        0x4 fs/built-in.o
                0x0007e880                ext4fs_indir3_block
 .bss.ext4fs_root
                0x0007e884        0x4 fs/built-in.o
                0x0007e884                ext4fs_root
 .bss.ext4fs_indir3_size
                0x0007e888        0x4 fs/built-in.o
                0x0007e888                ext4fs_indir3_size
 .bss.ext4fs_indir1_block
                0x0007e88c        0x4 fs/built-in.o
                0x0007e88c                ext4fs_indir1_block
 .bss.ext4fs_indir2_size
                0x0007e890        0x4 fs/built-in.o
                0x0007e890                ext4fs_indir2_size
 .bss.ext4fs_indir2_block
                0x0007e894        0x4 fs/built-in.o
                0x0007e894                ext4fs_indir2_block
 .bss.ext4fs_indir1_size
                0x0007e898        0x4 fs/built-in.o
                0x0007e898                ext4fs_indir1_size
 .bss.symlinknest
                0x0007e89c        0x4 fs/built-in.o
 .bss.ext4fs_file
                0x0007e8a0        0x4 fs/built-in.o
                0x0007e8a0                ext4fs_file
 .bss.part_info
                0x0007e8a4        0x4 fs/built-in.o
 .bss.part_offset
                0x0007e8a8        0x4 fs/built-in.o
                0x0007e8a8                part_offset
 .bss.ext4fs_blk_desc
                0x0007e8ac        0x4 fs/built-in.o
 *fill*         0x0007e8b0       0x10 00
 .bss.get_contents_vfatname_block
                0x0007e8c0    0x10000 fs/built-in.o
                0x0007e8c0                get_contents_vfatname_block
 .bss.do_fat_read_at_block
                0x0008e8c0    0x10000 fs/built-in.o
                0x0008e8c0                do_fat_read_at_block
 .bss.get_dentfromdir_block
                0x0009e8c0    0x10000 fs/built-in.o
                0x0009e8c0                get_dentfromdir_block
 .bss.empty_dentptr
                0x000ae8c0        0x4 fs/built-in.o
 .bss.cur_part_info
                0x000ae8c4       0x78 fs/built-in.o
 .bss.total_sector
                0x000ae93c        0x4 fs/built-in.o
 .bss.dir_curclust
                0x000ae940        0x4 fs/built-in.o
 .bss.num_of_fats
                0x000ae944        0x1 fs/built-in.o
 *fill*         0x000ae945        0x3 00
 .bss.cur_dev   0x000ae948        0x4 fs/built-in.o
 *fill*         0x000ae94c        0x4 00
 .bss.mono.7618
                0x000ae950        0x8 lib/built-in.o
 .bss.app_gd    0x000ae958        0x4 lib/built-in.o
 .bss.efi_gd    0x000ae95c        0x4 lib/built-in.o
 .bss.console_size_queried
                0x000ae960        0x1 lib/built-in.o
 *fill*         0x000ae961        0x3 00
 .bss.errno     0x000ae964        0x4 lib/built-in.o
                0x000ae964                errno
 .bss.local.7068
                0x000ae968       0x16 lib/built-in.o
 .bss.arp_tx_packet_buf
                0x000ae97e      0x620 net/built-in.o
 *fill*         0x000aef9e        0x2 00
 .bss.arp_wait_packet_ethaddr
                0x000aefa0        0x4 net/built-in.o
                0x000aefa0                arp_wait_packet_ethaddr
 .bss.arp_tx_packet
                0x000aefa4        0x4 net/built-in.o
 .bss.arp_wait_tx_packet_size
                0x000aefa8        0x4 net/built-in.o
                0x000aefa8                arp_wait_tx_packet_size
 .bss.arp_wait_try
                0x000aefac        0x4 net/built-in.o
                0x000aefac                arp_wait_try
 .bss.net_arp_wait_reply_ip
                0x000aefb0        0x4 net/built-in.o
 .bss.net_arp_wait_packet_ip
                0x000aefb4        0x4 net/built-in.o
                0x000aefb4                net_arp_wait_packet_ip
 .bss.arp_wait_timer_start
                0x000aefb8        0x4 net/built-in.o
                0x000aefb8                arp_wait_timer_start
 .bss.dhcp_state
                0x000aefbc        0x4 net/built-in.o
 .bss.net_hostname
                0x000aefc0       0x20 net/built-in.o
                0x000aefc0                net_hostname
 .bss.bootp_timeout
                0x000aefe0        0x4 net/built-in.o
                0x000aefe0                bootp_timeout
 .bss.dhcp_server_ip
                0x000aefe4        0x4 net/built-in.o
 .bss.dhcp_option_overload
                0x000aefe8        0x1 net/built-in.o
 *fill*         0x000aefe9        0x3 00
 .bss.time_taken_max
                0x000aefec        0x4 net/built-in.o
 .bss.net_root_path
                0x000aeff0       0x40 net/built-in.o
                0x000aeff0                net_root_path
 .bss.bootp_ids
                0x000af030       0x10 net/built-in.o
                0x000af030                bootp_ids
 .bss.bootp_num_ids
                0x000af040        0x4 net/built-in.o
                0x000af040                bootp_num_ids
 .bss.bootp_try
                0x000af044        0x4 net/built-in.o
                0x000af044                bootp_try
 .bss.bootp_start
                0x000af048        0x4 net/built-in.o
                0x000af048                bootp_start
 .bss.dhcp_leasetime
                0x000af04c        0x4 net/built-in.o
 .bss.net_nis_domain
                0x000af050       0x20 net/built-in.o
                0x000af050                net_nis_domain
 .bss.eth_current
                0x000af070        0x4 net/built-in.o
                0x000af070                eth_current
 .bss.eth_devices
                0x000af074        0x4 net/built-in.o
 .bss.index.7406
                0x000af078        0x4 net/built-in.o
 .bss.env_changed_id.8999
                0x000af07c        0x4 net/built-in.o
 .bss.act.8998  0x000af080        0x4 net/built-in.o
 .bss.first_failed.8993
                0x000af084        0x4 net/built-in.o
 .bss.net_ethaddr
                0x000af088        0x6 net/built-in.o
                0x000af088                net_ethaddr
 *fill*         0x000af08e        0x2 00
 .bss.net_dns_server
                0x000af090        0x4 net/built-in.o
                0x000af090                net_dns_server
 .bss.net_state
                0x000af094        0x4 net/built-in.o
                0x000af094                net_state
 .bss.net_server_ip
                0x000af098        0x4 net/built-in.o
                0x000af098                net_server_ip
 .bss.net_rx_packet
                0x000af09c        0x4 net/built-in.o
                0x000af09c                net_rx_packet
 .bss.net_boot_file_expected_size_in_blocks
                0x000af0a0        0x4 net/built-in.o
                0x000af0a0                net_boot_file_expected_size_in_blocks
 .bss.net_rx_packets
                0x000af0a4       0x10 net/built-in.o
                0x000af0a4                net_rx_packets
 .bss.time_start
                0x000af0b4        0x8 net/built-in.o
 .bss.net_gateway
                0x000af0bc        0x4 net/built-in.o
                0x000af0bc                net_gateway
 .bss.net_boot_file_name
                0x000af0c0      0x400 net/built-in.o
                0x000af0c0                net_boot_file_name
 .bss.udp_packet_handler
                0x000af4c0        0x4 net/built-in.o
 .bss.net_dev_exists
                0x000af4c4        0x4 net/built-in.o
 .bss.net_try_count
                0x000af4c8        0x4 net/built-in.o
 .bss.net_server_ethaddr
                0x000af4cc        0x6 net/built-in.o
                0x000af4cc                net_server_ethaddr
 .bss.net_null_ethaddr
                0x000af4d2        0x6 net/built-in.o
                0x000af4d2                net_null_ethaddr
 .bss.net_ip_id
                0x000af4d8        0x4 net/built-in.o
 .bss.net_restart_wrap
                0x000af4dc        0x4 net/built-in.o
                0x000af4dc                net_restart_wrap
 .bss.net_busy_flag
                0x000af4e0        0x4 net/built-in.o
                0x000af4e0                net_busy_flag
 .bss.net_restarted
                0x000af4e4        0x4 net/built-in.o
 .bss.time_delta
                0x000af4e8        0x4 net/built-in.o
 .bss.arp_packet_handler
                0x000af4ec        0x4 net/built-in.o
 .bss.net_netmask
                0x000af4f0        0x4 net/built-in.o
                0x000af4f0                net_netmask
 .bss.net_pkt_buf
                0x000af4f4     0x1e20 net/built-in.o
 .bss.net_ip    0x000b1314        0x4 net/built-in.o
                0x000b1314                net_ip
 .bss.net_rx_packet_len
                0x000b1318        0x4 net/built-in.o
                0x000b1318                net_rx_packet_len
 .bss.net_tx_packet
                0x000b131c        0x4 net/built-in.o
                0x000b131c                net_tx_packet
 .bss.time_handler
                0x000b1320        0x4 net/built-in.o
 .bss.net_boot_file_size
                0x000b1324        0x4 net/built-in.o
                0x000b1324                net_boot_file_size
 .bss.nfs_server_mount_port
                0x000b1328        0x4 net/built-in.o
 .bss.nfs_server_ip
                0x000b132c        0x4 net/built-in.o
 .bss.nfs_filename
                0x000b1330        0x4 net/built-in.o
 .bss.nfs_state
                0x000b1334        0x4 net/built-in.o
 .bss.dirfh     0x000b1338       0x20 net/built-in.o
 .bss.nfs_len   0x000b1358        0x4 net/built-in.o
 .bss.rpc_id    0x000b135c        0x4 net/built-in.o
 .bss.fs_mounted
                0x000b1360        0x4 net/built-in.o
 .bss.default_filename
                0x000b1364       0x4d net/built-in.o
 *fill*         0x000b13b1        0x3 00
 .bss.nfs_server_port
                0x000b13b4        0x4 net/built-in.o
 .bss.nfs_download_state
                0x000b13b8        0x4 net/built-in.o
 .bss.nfs_path  0x000b13bc        0x4 net/built-in.o
 .bss.filefh    0x000b13c0       0x20 net/built-in.o
 .bss.nfs_path_buff
                0x000b13e0      0x800 net/built-in.o
 .bss.nfs_timeout_count
                0x000b1be0        0x4 net/built-in.o
 .bss.nfs_our_port
                0x000b1be4        0x4 net/built-in.o
 .bss.net_ping_ip
                0x000b1be8        0x4 net/built-in.o
                0x000b1be8                net_ping_ip
 .bss.ping_seq_number
                0x000b1bec        0x2 net/built-in.o
 *fill*         0x000b1bee        0x2 00
 .bss.tftp_prev_block
                0x000b1bf0        0x4 net/built-in.o
 .bss.timeout_count
                0x000b1bf4        0x4 net/built-in.o
 .bss.tftp_block_wrap
                0x000b1bf8        0x4 net/built-in.o
 .bss.tftp_remote_port
                0x000b1bfc        0x4 net/built-in.o
 .bss.tftp_cur_block
                0x000b1c00        0x4 net/built-in.o
 .bss.tftp_remote_ip
                0x000b1c04        0x4 net/built-in.o
 .bss.tftp_state
                0x000b1c08        0x4 net/built-in.o
 .bss.tftp_our_port
                0x000b1c0c        0x4 net/built-in.o
 .bss.tftp_filename
                0x000b1c10       0x80 net/built-in.o
 .bss.tftp_block_wrap_offset
                0x000b1c90        0x4 net/built-in.o
                0x000b1c94                . = ALIGN (0x4)
                0x000b1c94                __bss_limit = .

.bss_end        0x000b1c94        0x0
 *(.__bss_end)
 .__bss_end     0x000b1c94        0x0 arch/arm/lib/built-in.o
                0x000b1c94                __bss_end

.dynsym         0x0005b7f0       0x60
 *(.dynsym)
 .dynsym        0x0005b7f0       0x60 arch/arm/cpu/arm1176/start.o

.dynbss         0x0005b850        0x0
 *(.dynbss)
 .dynbss        0x00000000        0x0 arch/arm/cpu/arm1176/start.o

.dynstr         0x0005b850       0x2a
 *(.dynstr*)
 .dynstr        0x0005b850       0x2a arch/arm/cpu/arm1176/start.o

.dynamic        0x0005b87c       0x80
 *(.dynamic*)
 .dynamic       0x0005b87c       0x80 arch/arm/cpu/arm1176/start.o
                0x0005b87c                _DYNAMIC

.plt            0x0005b8fc        0x0
 *(.plt*)
 .plt           0x00000000        0x0 arch/arm/cpu/arm1176/start.o

.interp         0x0005b8fc       0x11
 *(.interp*)
 .interp        0x0005b8fc       0x11 arch/arm/cpu/arm1176/start.o

.gnu.hash
 *(.gnu.hash)

.gnu            0x0005b910        0x0
 *(.gnu*)
 .gnu.version_d
                0x00000000        0x0 arch/arm/cpu/arm1176/start.o
 .gnu.version   0x00000000        0x0 arch/arm/cpu/arm1176/start.o
 .gnu.version_r
                0x00000000        0x0 arch/arm/cpu/arm1176/start.o

.ARM.exidx
 *(.ARM.exidx*)

.gnu.linkonce.armexidx
 *(.gnu.linkonce.armexidx.*)
LOAD arch/arm/cpu/arm1176/start.o
START GROUP
LOAD arch/arm/cpu/built-in.o
LOAD arch/arm/cpu/arm1176/built-in.o
LOAD arch/arm/lib/built-in.o
LOAD arch/arm/mach-bcm283x/built-in.o
LOAD board/raspberrypi/rpi/built-in.o
LOAD cmd/built-in.o
LOAD common/built-in.o
LOAD disk/built-in.o
LOAD drivers/built-in.o
LOAD drivers/dma/built-in.o
LOAD drivers/gpio/built-in.o
LOAD drivers/i2c/built-in.o
LOAD drivers/mmc/built-in.o
LOAD drivers/mtd/built-in.o
LOAD drivers/mtd/onenand/built-in.o
LOAD drivers/mtd/spi/built-in.o
LOAD drivers/net/built-in.o
LOAD drivers/net/phy/built-in.o
LOAD drivers/pci/built-in.o
LOAD drivers/power/built-in.o
LOAD drivers/power/battery/built-in.o
LOAD drivers/power/fuel_gauge/built-in.o
LOAD drivers/power/mfd/built-in.o
LOAD drivers/power/pmic/built-in.o
LOAD drivers/power/regulator/built-in.o
LOAD drivers/serial/built-in.o
LOAD drivers/spi/built-in.o
LOAD drivers/usb/common/built-in.o
LOAD drivers/usb/dwc3/built-in.o
LOAD drivers/usb/emul/built-in.o
LOAD drivers/usb/eth/built-in.o
LOAD drivers/usb/gadget/built-in.o
LOAD drivers/usb/gadget/udc/built-in.o
LOAD drivers/usb/host/built-in.o
LOAD drivers/usb/musb-new/built-in.o
LOAD drivers/usb/musb/built-in.o
LOAD drivers/usb/phy/built-in.o
LOAD drivers/usb/ulpi/built-in.o
LOAD fs/built-in.o
LOAD lib/built-in.o
LOAD net/built-in.o
LOAD test/built-in.o
LOAD test/dm/built-in.o
END GROUP
LOAD arch/arm/lib/eabi_compat.o
LOAD /home/boricj/Documents/Projects/minix/src/releasetools/rpi-tools/arm-bcm2708/arm-bcm2708-linux-gnueabi/bin/../lib/gcc/arm-bcm2708-linux-gnueabi/4.7.1/libgcc.a
OUTPUT(u-boot elf32-littlearm)

.ARM.attributes
                0x00000000       0x34
 .ARM.attributes
                0x00000000       0x1c arch/arm/cpu/arm1176/start.o
 .ARM.attributes
                0x0000001c       0x2c arch/arm/cpu/arm1176/built-in.o
 .ARM.attributes
                0x00000048       0x28 arch/arm/lib/built-in.o
 .ARM.attributes
                0x00000070       0x28 arch/arm/mach-bcm283x/built-in.o
 .ARM.attributes
                0x00000098       0x2c board/raspberrypi/rpi/built-in.o
 .ARM.attributes
                0x000000c4       0x2c cmd/built-in.o
 .ARM.attributes
                0x000000f0       0x2c common/built-in.o
 .ARM.attributes
                0x0000011c       0x2c disk/built-in.o
 .ARM.attributes
                0x00000148       0x2c drivers/built-in.o
 .ARM.attributes
                0x00000174       0x2c drivers/gpio/built-in.o
 .ARM.attributes
                0x000001a0       0x2c drivers/mmc/built-in.o
 .ARM.attributes
                0x000001cc       0x2c drivers/serial/built-in.o
 .ARM.attributes
                0x000001f8       0x2c drivers/usb/eth/built-in.o
 .ARM.attributes
                0x00000224       0x2c drivers/usb/host/built-in.o
 .ARM.attributes
                0x00000250       0x2c fs/built-in.o
 .ARM.attributes
                0x0000027c       0x2c lib/built-in.o
 .ARM.attributes
                0x000002a8       0x2c net/built-in.o
 .ARM.attributes
                0x000002d4       0x2c test/dm/built-in.o
 .ARM.attributes
                0x00000300       0x2c arch/arm/lib/eabi_compat.o
 .ARM.attributes
                0x0000032c       0x2a /home/boricj/Documents/Projects/minix/src/releasetools/rpi-tools/arm-bcm2708/arm-bcm2708-linux-gnueabi/bin/../lib/gcc/arm-bcm2708-linux-gnueabi/4.7.1/libgcc.a(_udivsi3.o)
 .ARM.attributes
                0x00000356       0x2a /home/boricj/Documents/Projects/minix/src/releasetools/rpi-tools/arm-bcm2708/arm-bcm2708-linux-gnueabi/bin/../lib/gcc/arm-bcm2708-linux-gnueabi/4.7.1/libgcc.a(_divsi3.o)
 .ARM.attributes
                0x00000380       0x2a /home/boricj/Documents/Projects/minix/src/releasetools/rpi-tools/arm-bcm2708/arm-bcm2708-linux-gnueabi/bin/../lib/gcc/arm-bcm2708-linux-gnueabi/4.7.1/libgcc.a(_lshrdi3.o)
 .ARM.attributes
                0x000003aa       0x2a /home/boricj/Documents/Projects/minix/src/releasetools/rpi-tools/arm-bcm2708/arm-bcm2708-linux-gnueabi/bin/../lib/gcc/arm-bcm2708-linux-gnueabi/4.7.1/libgcc.a(_ashldi3.o)
 .ARM.attributes
                0x000003d4       0x2a /home/boricj/Documents/Projects/minix/src/releasetools/rpi-tools/arm-bcm2708/arm-bcm2708-linux-gnueabi/bin/../lib/gcc/arm-bcm2708-linux-gnueabi/4.7.1/libgcc.a(_dvmd_lnx.o)

.comment        0x00000000       0x37
 .comment       0x00000000       0x37 arch/arm/cpu/arm1176/built-in.o
                                 0x38 (size before relaxing)
 .comment       0x00000000      0x1c0 arch/arm/lib/built-in.o
 .comment       0x00000000       0xe0 arch/arm/mach-bcm283x/built-in.o
 .comment       0x00000000       0x38 board/raspberrypi/rpi/built-in.o
 .comment       0x00000000      0x738 cmd/built-in.o
 .comment       0x00000000      0x8f8 common/built-in.o
 .comment       0x00000000       0xe0 disk/built-in.o
 .comment       0x00000000      0x2d8 drivers/built-in.o
 .comment       0x00000000       0x70 drivers/gpio/built-in.o
 .comment       0x00000000       0xe0 drivers/mmc/built-in.o
 .comment       0x00000000       0x70 drivers/serial/built-in.o
 .comment       0x00000000       0x70 drivers/usb/eth/built-in.o
 .comment       0x00000000       0x38 drivers/usb/host/built-in.o
 .comment       0x00000000      0x150 fs/built-in.o
 .comment       0x00000000      0xa10 lib/built-in.o
 .comment       0x00000000      0x1f8 net/built-in.o
 .comment       0x00000000       0x38 test/dm/built-in.o
 .comment       0x00000000       0x38 arch/arm/lib/eabi_compat.o

.note.GNU-stack
                0x00000000        0x0
 .note.GNU-stack
                0x00000000        0x0 arch/arm/cpu/arm1176/built-in.o
 .note.GNU-stack
                0x00000000        0x0 arch/arm/lib/built-in.o
 .note.GNU-stack
                0x00000000        0x0 arch/arm/mach-bcm283x/built-in.o
 .note.GNU-stack
                0x00000000        0x0 board/raspberrypi/rpi/built-in.o
 .note.GNU-stack
                0x00000000        0x0 cmd/built-in.o
 .note.GNU-stack
                0x00000000        0x0 common/built-in.o
 .note.GNU-stack
                0x00000000        0x0 disk/built-in.o
 .note.GNU-stack
                0x00000000        0x0 drivers/built-in.o
 .note.GNU-stack
                0x00000000        0x0 drivers/gpio/built-in.o
 .note.GNU-stack
                0x00000000        0x0 drivers/mmc/built-in.o
 .note.GNU-stack
                0x00000000        0x0 drivers/serial/built-in.o
 .note.GNU-stack
                0x00000000        0x0 drivers/usb/eth/built-in.o
 .note.GNU-stack
                0x00000000        0x0 drivers/usb/host/built-in.o
 .note.GNU-stack
                0x00000000        0x0 fs/built-in.o
 .note.GNU-stack
                0x00000000        0x0 lib/built-in.o
 .note.GNU-stack
                0x00000000        0x0 net/built-in.o
 .note.GNU-stack
                0x00000000        0x0 test/dm/built-in.o
 .note.GNU-stack
                0x00000000        0x0 arch/arm/lib/eabi_compat.o
 .note.GNU-stack
                0x00000000        0x0 /home/boricj/Documents/Projects/minix/src/releasetools/rpi-tools/arm-bcm2708/arm-bcm2708-linux-gnueabi/bin/../lib/gcc/arm-bcm2708-linux-gnueabi/4.7.1/libgcc.a(_udivsi3.o)
 .note.GNU-stack
                0x00000000        0x0 /home/boricj/Documents/Projects/minix/src/releasetools/rpi-tools/arm-bcm2708/arm-bcm2708-linux-gnueabi/bin/../lib/gcc/arm-bcm2708-linux-gnueabi/4.7.1/libgcc.a(_divsi3.o)
 .note.GNU-stack
                0x00000000        0x0 /home/boricj/Documents/Projects/minix/src/releasetools/rpi-tools/arm-bcm2708/arm-bcm2708-linux-gnueabi/bin/../lib/gcc/arm-bcm2708-linux-gnueabi/4.7.1/libgcc.a(_lshrdi3.o)
 .note.GNU-stack
                0x00000000        0x0 /home/boricj/Documents/Projects/minix/src/releasetools/rpi-tools/arm-bcm2708/arm-bcm2708-linux-gnueabi/bin/../lib/gcc/arm-bcm2708-linux-gnueabi/4.7.1/libgcc.a(_ashldi3.o)
 .note.GNU-stack
                0x00000000        0x0 /home/boricj/Documents/Projects/minix/src/releasetools/rpi-tools/arm-bcm2708/arm-bcm2708-linux-gnueabi/bin/../lib/gcc/arm-bcm2708-linux-gnueabi/4.7.1/libgcc.a(_dvmd_lnx.o)

.debug_line     0x00000000    0x1f4ec
 .debug_line    0x00000000       0x63 arch/arm/cpu/arm1176/start.o
 .debug_line    0x00000063      0x146 arch/arm/cpu/arm1176/built-in.o
 .debug_line    0x000001a9      0xd08 arch/arm/lib/built-in.o
 .debug_line    0x00000eb1      0x3be arch/arm/mach-bcm283x/built-in.o
 .debug_line    0x0000126f      0x2c9 board/raspberrypi/rpi/built-in.o
 .debug_line    0x00001538     0x4b0e cmd/built-in.o
 .debug_line    0x00006046     0x85db common/built-in.o
 .debug_line    0x0000e621     0x10d4 disk/built-in.o
 .debug_line    0x0000f6f5     0x1beb drivers/built-in.o
 .debug_line    0x000112e0      0x8fe drivers/gpio/built-in.o
 .debug_line    0x00011bde     0x1339 drivers/mmc/built-in.o
 .debug_line    0x00012f17      0x58d drivers/serial/built-in.o
 .debug_line    0x000134a4      0x62a drivers/usb/eth/built-in.o
 .debug_line    0x00013ace      0x5db drivers/usb/host/built-in.o
 .debug_line    0x000140a9     0x1cb0 fs/built-in.o
 .debug_line    0x00015d59     0x71f8 lib/built-in.o
 .debug_line    0x0001cf51     0x202b net/built-in.o
 .debug_line    0x0001ef7c      0x117 test/dm/built-in.o
 .debug_line    0x0001f093      0x123 arch/arm/lib/eabi_compat.o
 .debug_line    0x0001f1b6       0xb4 /home/boricj/Documents/Projects/minix/src/releasetools/rpi-tools/arm-bcm2708/arm-bcm2708-linux-gnueabi/bin/../lib/gcc/arm-bcm2708-linux-gnueabi/4.7.1/libgcc.a(_udivsi3.o)
 .debug_line    0x0001f26a       0xc0 /home/boricj/Documents/Projects/minix/src/releasetools/rpi-tools/arm-bcm2708/arm-bcm2708-linux-gnueabi/bin/../lib/gcc/arm-bcm2708-linux-gnueabi/4.7.1/libgcc.a(_divsi3.o)
 .debug_line    0x0001f32a       0x96 /home/boricj/Documents/Projects/minix/src/releasetools/rpi-tools/arm-bcm2708/arm-bcm2708-linux-gnueabi/bin/../lib/gcc/arm-bcm2708-linux-gnueabi/4.7.1/libgcc.a(_lshrdi3.o)
 .debug_line    0x0001f3c0       0x96 /home/boricj/Documents/Projects/minix/src/releasetools/rpi-tools/arm-bcm2708/arm-bcm2708-linux-gnueabi/bin/../lib/gcc/arm-bcm2708-linux-gnueabi/4.7.1/libgcc.a(_ashldi3.o)
 .debug_line    0x0001f456       0x96 /home/boricj/Documents/Projects/minix/src/releasetools/rpi-tools/arm-bcm2708/arm-bcm2708-linux-gnueabi/bin/../lib/gcc/arm-bcm2708-linux-gnueabi/4.7.1/libgcc.a(_dvmd_lnx.o)

.debug_info     0x00000000    0xc5865
 .debug_info    0x00000000       0x81 arch/arm/cpu/arm1176/start.o
 .debug_info    0x00000081      0x590 arch/arm/cpu/arm1176/built-in.o
 .debug_info    0x00000611     0x4ea2 arch/arm/lib/built-in.o
 .debug_info    0x000054b3     0x1152 arch/arm/mach-bcm283x/built-in.o
 .debug_info    0x00006605     0x1c52 board/raspberrypi/rpi/built-in.o
 .debug_info    0x00008257    0x243c7 cmd/built-in.o
 .debug_info    0x0002c61e    0x35276 common/built-in.o
 .debug_info    0x00061894     0x6c31 disk/built-in.o
 .debug_info    0x000684c5     0xbd86 drivers/built-in.o
 .debug_info    0x0007424b     0x3cc2 drivers/gpio/built-in.o
 .debug_info    0x00077f0d     0x794b drivers/mmc/built-in.o
 .debug_info    0x0007f858     0x2ca2 drivers/serial/built-in.o
 .debug_info    0x000824fa     0x31b7 drivers/usb/eth/built-in.o
 .debug_info    0x000856b1     0x3d9c drivers/usb/host/built-in.o
 .debug_info    0x0008944d     0xb3b3 fs/built-in.o
 .debug_info    0x00094800    0x23836 lib/built-in.o
 .debug_info    0x000b8036     0xc6f2 net/built-in.o
 .debug_info    0x000c4728      0x70c test/dm/built-in.o
 .debug_info    0x000c4e34      0x540 arch/arm/lib/eabi_compat.o
 .debug_info    0x000c5374       0xfd /home/boricj/Documents/Projects/minix/src/releasetools/rpi-tools/arm-bcm2708/arm-bcm2708-linux-gnueabi/bin/../lib/gcc/arm-bcm2708-linux-gnueabi/4.7.1/libgcc.a(_udivsi3.o)
 .debug_info    0x000c5471       0xfd /home/boricj/Documents/Projects/minix/src/releasetools/rpi-tools/arm-bcm2708/arm-bcm2708-linux-gnueabi/bin/../lib/gcc/arm-bcm2708-linux-gnueabi/4.7.1/libgcc.a(_divsi3.o)
 .debug_info    0x000c556e       0xfd /home/boricj/Documents/Projects/minix/src/releasetools/rpi-tools/arm-bcm2708/arm-bcm2708-linux-gnueabi/bin/../lib/gcc/arm-bcm2708-linux-gnueabi/4.7.1/libgcc.a(_lshrdi3.o)
 .debug_info    0x000c566b       0xfd /home/boricj/Documents/Projects/minix/src/releasetools/rpi-tools/arm-bcm2708/arm-bcm2708-linux-gnueabi/bin/../lib/gcc/arm-bcm2708-linux-gnueabi/4.7.1/libgcc.a(_ashldi3.o)
 .debug_info    0x000c5768       0xfd /home/boricj/Documents/Projects/minix/src/releasetools/rpi-tools/arm-bcm2708/arm-bcm2708-linux-gnueabi/bin/../lib/gcc/arm-bcm2708-linux-gnueabi/4.7.1/libgcc.a(_dvmd_lnx.o)

.debug_abbrev   0x00000000    0x20e75
 .debug_abbrev  0x00000000       0x14 arch/arm/cpu/arm1176/start.o
 .debug_abbrev  0x00000014      0x229 arch/arm/cpu/arm1176/built-in.o
 .debug_abbrev  0x0000023d     0x1064 arch/arm/lib/built-in.o
 .debug_abbrev  0x000012a1      0x537 arch/arm/mach-bcm283x/built-in.o
 .debug_abbrev  0x000017d8      0x308 board/raspberrypi/rpi/built-in.o
 .debug_abbrev  0x00001ae0     0x5e39 cmd/built-in.o
 .debug_abbrev  0x00007919     0x8abc common/built-in.o
 .debug_abbrev  0x000103d5     0x1153 disk/built-in.o
 .debug_abbrev  0x00011528     0x1f18 drivers/built-in.o
 .debug_abbrev  0x00013440      0x76c drivers/gpio/built-in.o
 .debug_abbrev  0x00013bac     0x1201 drivers/mmc/built-in.o
 .debug_abbrev  0x00014dad      0x745 drivers/serial/built-in.o
 .debug_abbrev  0x000154f2      0x721 drivers/usb/eth/built-in.o
 .debug_abbrev  0x00015c13      0x4e9 drivers/usb/host/built-in.o
 .debug_abbrev  0x000160fc     0x1700 fs/built-in.o
 .debug_abbrev  0x000177fc     0x6e8a lib/built-in.o
 .debug_abbrev  0x0001e686     0x23cf net/built-in.o
 .debug_abbrev  0x00020a55      0x202 test/dm/built-in.o
 .debug_abbrev  0x00020c57      0x1ba arch/arm/lib/eabi_compat.o
 .debug_abbrev  0x00020e11       0x14 /home/boricj/Documents/Projects/minix/src/releasetools/rpi-tools/arm-bcm2708/arm-bcm2708-linux-gnueabi/bin/../lib/gcc/arm-bcm2708-linux-gnueabi/4.7.1/libgcc.a(_udivsi3.o)
 .debug_abbrev  0x00020e25       0x14 /home/boricj/Documents/Projects/minix/src/releasetools/rpi-tools/arm-bcm2708/arm-bcm2708-linux-gnueabi/bin/../lib/gcc/arm-bcm2708-linux-gnueabi/4.7.1/libgcc.a(_divsi3.o)
 .debug_abbrev  0x00020e39       0x14 /home/boricj/Documents/Projects/minix/src/releasetools/rpi-tools/arm-bcm2708/arm-bcm2708-linux-gnueabi/bin/../lib/gcc/arm-bcm2708-linux-gnueabi/4.7.1/libgcc.a(_lshrdi3.o)
 .debug_abbrev  0x00020e4d       0x14 /home/boricj/Documents/Projects/minix/src/releasetools/rpi-tools/arm-bcm2708/arm-bcm2708-linux-gnueabi/bin/../lib/gcc/arm-bcm2708-linux-gnueabi/4.7.1/libgcc.a(_ashldi3.o)
 .debug_abbrev  0x00020e61       0x14 /home/boricj/Documents/Projects/minix/src/releasetools/rpi-tools/arm-bcm2708/arm-bcm2708-linux-gnueabi/bin/../lib/gcc/arm-bcm2708-linux-gnueabi/4.7.1/libgcc.a(_dvmd_lnx.o)

.debug_aranges  0x00000000     0x4108
 .debug_aranges
                0x00000000       0x20 arch/arm/cpu/arm1176/start.o
 .debug_aranges
                0x00000020       0x48 arch/arm/cpu/arm1176/built-in.o
 .debug_aranges
                0x00000068      0x270 arch/arm/lib/built-in.o
 .debug_aranges
                0x000002d8       0xb0 arch/arm/mach-bcm283x/built-in.o
 .debug_aranges
                0x00000388       0x48 board/raspberrypi/rpi/built-in.o
 .debug_aranges
                0x000003d0      0x850 cmd/built-in.o
 .debug_aranges
                0x00000c20     0x1260 common/built-in.o
 .debug_aranges
                0x00001e80      0x188 disk/built-in.o
 .debug_aranges
                0x00002008      0x418 drivers/built-in.o
 .debug_aranges
                0x00002420      0x198 drivers/gpio/built-in.o
 .debug_aranges
                0x000025b8      0x1e0 drivers/mmc/built-in.o
 .debug_aranges
                0x00002798       0xe8 drivers/serial/built-in.o
 .debug_aranges
                0x00002880       0xb8 drivers/usb/eth/built-in.o
 .debug_aranges
                0x00002938       0x68 drivers/usb/host/built-in.o
 .debug_aranges
                0x000029a0      0x330 fs/built-in.o
 .debug_aranges
                0x00002cd0      0xf20 lib/built-in.o
 .debug_aranges
                0x00003bf0      0x400 net/built-in.o
 .debug_aranges
                0x00003ff0       0x38 test/dm/built-in.o
 .debug_aranges
                0x00004028       0x40 arch/arm/lib/eabi_compat.o
 .debug_aranges
                0x00004068       0x20 /home/boricj/Documents/Projects/minix/src/releasetools/rpi-tools/arm-bcm2708/arm-bcm2708-linux-gnueabi/bin/../lib/gcc/arm-bcm2708-linux-gnueabi/4.7.1/libgcc.a(_udivsi3.o)
 .debug_aranges
                0x00004088       0x20 /home/boricj/Documents/Projects/minix/src/releasetools/rpi-tools/arm-bcm2708/arm-bcm2708-linux-gnueabi/bin/../lib/gcc/arm-bcm2708-linux-gnueabi/4.7.1/libgcc.a(_divsi3.o)
 .debug_aranges
                0x000040a8       0x20 /home/boricj/Documents/Projects/minix/src/releasetools/rpi-tools/arm-bcm2708/arm-bcm2708-linux-gnueabi/bin/../lib/gcc/arm-bcm2708-linux-gnueabi/4.7.1/libgcc.a(_lshrdi3.o)
 .debug_aranges
                0x000040c8       0x20 /home/boricj/Documents/Projects/minix/src/releasetools/rpi-tools/arm-bcm2708/arm-bcm2708-linux-gnueabi/bin/../lib/gcc/arm-bcm2708-linux-gnueabi/4.7.1/libgcc.a(_ashldi3.o)
 .debug_aranges
                0x000040e8       0x20 /home/boricj/Documents/Projects/minix/src/releasetools/rpi-tools/arm-bcm2708/arm-bcm2708-linux-gnueabi/bin/../lib/gcc/arm-bcm2708-linux-gnueabi/4.7.1/libgcc.a(_dvmd_lnx.o)

.debug_frame    0x00000000     0xaa48
 .debug_frame   0x00000000       0x80 arch/arm/cpu/arm1176/built-in.o
 .debug_frame   0x00000080      0x400 arch/arm/lib/built-in.o
 .debug_frame   0x00000480       0xc8 arch/arm/mach-bcm283x/built-in.o
 .debug_frame   0x00000548       0xb4 board/raspberrypi/rpi/built-in.o
 .debug_frame   0x000005fc     0x152c cmd/built-in.o
 .debug_frame   0x00001b28     0x319c common/built-in.o
 .debug_frame   0x00004cc4      0x4ec disk/built-in.o
 .debug_frame   0x000051b0      0x9a0 drivers/built-in.o
 .debug_frame   0x00005b50      0x548 drivers/gpio/built-in.o
 .debug_frame   0x00006098      0x524 drivers/mmc/built-in.o
 .debug_frame   0x000065bc      0x234 drivers/serial/built-in.o
 .debug_frame   0x000067f0      0x204 drivers/usb/eth/built-in.o
 .debug_frame   0x000069f4      0x148 drivers/usb/host/built-in.o
 .debug_frame   0x00006b3c      0x9c8 fs/built-in.o
 .debug_frame   0x00007504     0x292c lib/built-in.o
 .debug_frame   0x00009e30      0xb04 net/built-in.o
 .debug_frame   0x0000a934       0x6c test/dm/built-in.o
 .debug_frame   0x0000a9a0       0x68 arch/arm/lib/eabi_compat.o
 .debug_frame   0x0000aa08       0x20 /home/boricj/Documents/Projects/minix/src/releasetools/rpi-tools/arm-bcm2708/arm-bcm2708-linux-gnueabi/bin/../lib/gcc/arm-bcm2708-linux-gnueabi/4.7.1/libgcc.a(_udivsi3.o)
 .debug_frame   0x0000aa28       0x20 /home/boricj/Documents/Projects/minix/src/releasetools/rpi-tools/arm-bcm2708/arm-bcm2708-linux-gnueabi/bin/../lib/gcc/arm-bcm2708-linux-gnueabi/4.7.1/libgcc.a(_divsi3.o)

.debug_str      0x00000000    0x121ea
 .debug_str     0x00000000      0x334 arch/arm/cpu/arm1176/built-in.o
                                0x3db (size before relaxing)
 .debug_str     0x00000334     0x1459 arch/arm/lib/built-in.o
                               0x322b (size before relaxing)
 .debug_str     0x0000178d      0x171 arch/arm/mach-bcm283x/built-in.o
                                0xb85 (size before relaxing)
 .debug_str     0x000018fe      0x8b7 board/raspberrypi/rpi/built-in.o
                                0xfe1 (size before relaxing)
 .debug_str     0x000021b5     0x3afe cmd/built-in.o
                               0xfbf7 (size before relaxing)
 .debug_str     0x00005cb3     0x433d common/built-in.o
                              0x19564 (size before relaxing)
 .debug_str     0x00009ff0      0xac8 disk/built-in.o
                               0x24ef (size before relaxing)
 .debug_str     0x0000aab8      0xdcd drivers/built-in.o
                               0x7292 (size before relaxing)
 .debug_str     0x0000b885      0x527 drivers/gpio/built-in.o
                               0x1d31 (size before relaxing)
 .debug_str     0x0000bdac      0x687 drivers/mmc/built-in.o
                               0x247b (size before relaxing)
 .debug_str     0x0000c433      0x2ca drivers/serial/built-in.o
                               0x1a58 (size before relaxing)
 .debug_str     0x0000c6fd      0x480 drivers/usb/eth/built-in.o
                               0x14db (size before relaxing)
 .debug_str     0x0000cb7d      0x59e drivers/usb/host/built-in.o
                               0x16ef (size before relaxing)
 .debug_str     0x0000d11b     0x1158 fs/built-in.o
                               0x3ce7 (size before relaxing)
 .debug_str     0x0000e273     0x2c21 lib/built-in.o
                               0xf478 (size before relaxing)
 .debug_str     0x00010e94     0x1269 net/built-in.o
                               0x6c93 (size before relaxing)
 .debug_str     0x000120fd       0x79 test/dm/built-in.o
                                0x420 (size before relaxing)
 .debug_str     0x00012176       0x74 arch/arm/lib/eabi_compat.o
                                0x377 (size before relaxing)

.debug_loc      0x00000000    0x5bf18
 .debug_loc     0x00000000      0x120 arch/arm/cpu/arm1176/built-in.o
 .debug_loc     0x00000120      0xc5f arch/arm/lib/built-in.o
 .debug_loc     0x00000d7f      0x311 arch/arm/mach-bcm283x/built-in.o
 .debug_loc     0x00001090      0x393 board/raspberrypi/rpi/built-in.o
 .debug_loc     0x00001423     0xe95e cmd/built-in.o
 .debug_loc     0x0000fd81    0x1729a common/built-in.o
 .debug_loc     0x0002701b     0x2df7 disk/built-in.o
 .debug_loc     0x00029e12     0x411f drivers/built-in.o
 .debug_loc     0x0002df31     0x1c1e drivers/gpio/built-in.o
 .debug_loc     0x0002fb4f     0x3c52 drivers/mmc/built-in.o
 .debug_loc     0x000337a1      0xbbf drivers/serial/built-in.o
 .debug_loc     0x00034360     0x10d8 drivers/usb/eth/built-in.o
 .debug_loc     0x00035438     0x2b82 drivers/usb/host/built-in.o
 .debug_loc     0x00037fba     0x7bfb fs/built-in.o
 .debug_loc     0x0003fbb5    0x168cb lib/built-in.o
 .debug_loc     0x00056480     0x56e7 net/built-in.o
 .debug_loc     0x0005bb67      0x289 test/dm/built-in.o
 .debug_loc     0x0005bdf0      0x128 arch/arm/lib/eabi_compat.o

.debug_ranges   0x00000000     0xa4b0
 .debug_ranges  0x00000000       0x38 arch/arm/cpu/arm1176/built-in.o
 .debug_ranges  0x00000038      0x200 arch/arm/lib/built-in.o
 .debug_ranges  0x00000238       0xc8 arch/arm/mach-bcm283x/built-in.o
 .debug_ranges  0x00000300       0x68 board/raspberrypi/rpi/built-in.o
 .debug_ranges  0x00000368     0x1468 cmd/built-in.o
 .debug_ranges  0x000017d0     0x2c40 common/built-in.o
 .debug_ranges  0x00004410      0x6a8 disk/built-in.o
 .debug_ranges  0x00004ab8      0x690 drivers/built-in.o
 .debug_ranges  0x00005148      0x270 drivers/gpio/built-in.o
 .debug_ranges  0x000053b8      0x858 drivers/mmc/built-in.o
 .debug_ranges  0x00005c10      0x160 drivers/serial/built-in.o
 .debug_ranges  0x00005d70      0x230 drivers/usb/eth/built-in.o
 .debug_ranges  0x00005fa0      0x418 drivers/usb/host/built-in.o
 .debug_ranges  0x000063b8      0xbd0 fs/built-in.o
 .debug_ranges  0x00006f88     0x2988 lib/built-in.o
 .debug_ranges  0x00009910      0xb48 net/built-in.o
 .debug_ranges  0x0000a458       0x28 test/dm/built-in.o
 .debug_ranges  0x0000a480       0x30 arch/arm/lib/eabi_compat.o
